00401005   E9 96E50A00      JMP GameServ.std::_Tree<int,std::pair<in>
0040100A   E9 F1641000      JMP GameServ.CBloodCastle::SendNoticeSta>
0040100F   E9 6C6C0800      JMP GameServ.std::swap
00401014   E9 77050500      JMP GameServ.FriendMemoSendResult
00401019   E9 52980800      JMP GameServ.CWhisperCash::TimeCheckCash>
0040101E   E9 1D7C0100      JMP GameServ.CMonsterAttr::`scalar delet>
00401023   E9 083A0200      JMP GameServ.GS_DGAnsNpcRemove
00401028   E9 D3BA0100      JMP GameServ.CDbSave::Begin
0040102D   E9 CE510700      JMP GameServ.wsJoinServerCli::`scalar de>
00401032   E9 794B0700      JMP GameServ.CloseClient
00401037   E9 B4860500      JMP GameServ.CBattleGround::`scalar dele>
0040103C   E9 BF1E0400      JMP GameServ.GCReqmoveDevilSquare
00401041   E9 DA861100      JMP GameServ.std::allocator<tagPOINT>::a>
00401046   E9 755D0800      JMP GameServ.std::_Tree<std::basic_strin>
0040104B   E9 B0EA0500      JMP GameServ.CRingAttackEvent::SetMenual>
00401050   E9 DB980500      JMP GameServ.CDragonEvent::`scalar delet>
00401055   E9 56751100      JMP GameServ.std::_Tree<int,std::pair<in>
0040105A   E9 316D0600      JMP GameServ.std::_Tree<int,std::pair<in>
0040105F   E9 4C3D0800      JMP GameServ.std::basic_string<char,std:>
00401064   E9 F7DD0A00      JMP GameServ.std::_Tree<int,std::pair<in>
00401069   E9 32A90900      JMP GameServ.CObjUseSkill::UseSkill
0040106E   E9 3D910600      JMP GameServ.CItemBagEx::~CItemBagEx
00401073   E9 788B0900      JMP GameServ.CObjBaseAttack::DecreaseArr>
00401078   E9 C3F60500      JMP GameServ.std::vector<RINGMONSTER_DAT>
0040107D   E9 FE470100      JMP GameServ.gObjMonsterDieGiveItem
00401082   E9 79D90300      JMP GameServ.GCDiePlayerSend
00401087   E9 64EA0400      JMP GameServ.GDRelationShipReqKickOutUni>
0040108C   E9 4F370200      JMP GameServ.GS_DGAnsSiegeEndedChange
00401091   E9 7AB80000      JMP GameServ.std::_Tree<int,std::pair<in>
00401096   E9 B5A00000      JMP GameServ.std::_Tree<int,std::pair<in>
0040109B   E9 A0270600      JMP GameServ.AttackEvent53BagOpen
004010A0   E9 2B770D00      JMP GameServ.gObjMagicManaUse
004010A5   E9 A6530400      JMP GameServ.CGDuelStartRequestRecv
004010AA   E9 31FE1100      JMP GameServ.std::allocator<_MAPSVR_DATA>
004010AF   E9 8C240500      JMP GameServ.CSendHackLog::`scalar delet>
004010B4   E9 87150800      JMP GameServ.SoulPotionChaosMix
004010B9   E9 42FF0800      JMP GameServ.std::map<std::basic_string<>
004010BE   E9 7DE40000      JMP GameServ.gObjMonsterHitDamageInit
004010C3   E9 58B20400      JMP GameServ.GDGuildDestroySend
004010C8   E9 93AB0500      JMP GameServ.CEledoradoEvent::SetEventSt>
004010CD   E9 BE600500      JMP GameServ.DevilSquareScoreSort
004010D2   E9 B9EE0500      JMP GameServ.std::vector<RINGMONSTER_DAT>
004010D7   E9 C4FB1000      JMP GameServ.CChaosCastle::LeaveUserChao>
004010DC   E9 0FFD1100      JMP GameServ.std::vector<_MAPSVR_DATA *,>
004010E1   E9 BA910600      JMP GameServ.CItemBagEx::LoadItem
004010E6   E9 E59F0700      JMP GameServ.MapClass::CheckWall
004010EB   E9 50FE1100      JMP GameServ.std::pair<int const ,_MAPSV>
004010F0   E9 5BD50800      JMP GameServ.PartyClass::PartyClass
004010F5   E9 66BC0A00      JMP GameServ.TUnion::~TUnion
004010FA   E9 41120500      JMP GameServ.CMultiAttackHackCheck::`sca>
004010FF   E9 ECE40200      JMP GameServ.GCItemMoveResultSend
00401104   E9 37C90200      JMP GameServ.CGItemDropRequest
00401109   E9 C2530900      JMP GameServ.CViewportGuild::CViewportGu>
0040110E   E9 DDA80500      JMP GameServ.CAttackEvent::SetMenualStar>
00401113   E9 38770500      JMP GameServ.std::vector<OBJECTSTRUCT *,>
00401118   E9 039F0E00      JMP GameServ.CItem::NormalWeaponDurabili>
0040111D   E9 AEC80A00      JMP GameServ.std::_Tree<int,std::pair<in>
00401122   E9 69800200      JMP GameServ.PChatProc
00401127   E9 54340600      JMP GameServ.EGRecvChangeStones
0040112C   E9 6F810B00      JMP GameServ.gObjAddCallMon
00401131   E9 BAA00000      JMP GameServ.std::map<int,_MONSTER_HERD_>
00401136   E9 75460200      JMP GameServ.GJPUserKillRecv
0040113B   E9 E04F1100      JMP GameServ.std::map<int,_MONSTER_ITEM_>
00401140   E9 2BBE0400      JMP GameServ.DGGuildMemberInfo
00401145   E9 16FB1100      JMP GameServ.std::_Tree<int,std::pair<in>
0040114A   E9 512D0B00      JMP GameServ.gObjGetSocket
0040114F   E9 BCDB0000      JMP GameServ.CQeustNpcTeleport::CQeustNp>
00401154   E9 677D0500      JMP GameServ.std::allocator<OBJECTSTRUCT>
00401159   E9 B2260A00      JMP GameServ.classdef::Init
0040115E   E9 6DC70600      JMP GameServ.CMagicDamage::CheckSkillAtt>
00401163   E9 E8CE1100      JMP GameServ.std::map<int,_MAPSVR_DATA *>
00401168   E9 F3450E00      JMP GameServ.CItem::CItem
0040116D   E9 AEF70500      JMP GameServ.std::allocator<RINGMONSTER_>
00401172   E9 C9970400      JMP GameServ.CGReqGiveUpCastleSiege
00401177   E9 74551100      JMP GameServ.std::vector<tagPOINT,std::a>
0040117C   E9 5F240200      JMP GameServ.PBMSG_HEAD2::set
00401181   E9 1A9F0700      JMP GameServ.PATH::GetPathY
00401186   E9 05230A00      JMP GameServ.CObjUseSkill::SkillRemoveMa>
0040118B   E9 60210700      JMP GameServ.IocpServerWorker
00401190   E9 CB9C0B00      JMP GameServ.gObjTaiwanJoominCheck
00401195   E9 56C80600      JMP GameServ.CMagicDamage::GetDelayTime
0040119A   E9 21A30400      JMP GameServ.CGReqGuildMarkOfCastleOwner
0040119F   E9 7C000900      JMP GameServ.std::map<int,_GUILD_INFO_ST>
004011A4   E9 E7650800      JMP GameServ.std::_Tree<std::basic_strin>
004011A9   E9 C2840D00      JMP GameServ.gObjMonsterMagicAdd
004011AE   E9 6D260500      JMP GameServ.DevilSquareEventProtocolCor>
004011B3   E9 18BD0100      JMP GameServ.DBSockMng::`scalar deleting>
004011B8   E9 53810800      JMP GameServ.LogTextPaintProcVoid
004011BD   E9 CE020200      JMP GameServ.GDSetWarehouseList
004011C2   E9 79750700      JMP GameServ.MapClass::GetLevelPos
004011C7   E9 74860000      JMP GameServ.MonsterHerd::MoveHerd
004011CC   E9 CF8C0B00      JMP GameServ.gObjMemFree
004011D1   E9 0A561100      JMP GameServ.std::_Tree<int,std::pair<in>
004011D6   E9 C51A0500      JMP GameServ.CPacketCheckSum::Init
004011DB   E9 407F1100      JMP GameServ.std::_Tree<int,std::pair<in>
004011E0   E9 6B250900      JMP GameServ.std::_Tree<std::basic_strin>
004011E5   E9 C6910500      JMP GameServ.BattleSoccerGoalEnd
004011EA   E9 E13E1100      JMP GameServ.CChaosCastle::CalUsersInTra>
004011EF   E9 FCA51100      JMP GameServ.CCastleSiegeSync::`scalar d>
004011F4   E9 877E1100      JMP GameServ.std::_Tree<int,std::pair<in>
004011F9   E9 721E0500      JMP GameServ.CPacketCheckSum::AddCheckSu>
004011FE   E9 1DF80000      JMP GameServ.gObjMonsterStateProc
00401203   E9 68990E00      JMP GameServ.CItem::IsExtAttackRate
00401208   E9 C39C0900      JMP GameServ.CObjUseSkill::`scalar delet>
0040120D   E9 7ED30600      JMP GameServ.CSkillDelay::CSkillDelay
00401212   E9 C9EA0500      JMP GameServ.std::vector<RINGMONSTER_DAT>
00401217   E9 C4771100      JMP GameServ.std::vector<tagPOINT,std::a>
0040121C   E9 7FA00500      JMP GameServ.CAttackEvent::End
00401221   E9 5A1A0700      JMP GameServ.CWzMultiCastSock::SavePriva>
00401226   E9 D5A60600      JMP GameServ.CMagicDamage::CMagicDamage
0040122B   E9 60120300      JMP GameServ.GetNeedMoneyItemDurRepaire
00401230   E9 3B6B0400      JMP GameServ.GCSendDuelScore
00401235   E9 C6380E00      JMP GameServ.CSetItemOption::GetSetOptio>
0040123A   E9 91E60C00      JMP GameServ.gObjViewportListDestroy
0040123F   E9 0CF90500      JMP GameServ.std::copy_backward
00401244   E9 F7F50800      JMP GameServ.CGuildClass::GetGuildType
00401249   E9 92DC0500      JMP GameServ.CRingAttackEvent::ProcState>
0040124E   E9 3D8D0200      JMP GameServ.CGChatWhisperRecv
00401253   E9 58C70A00      JMP GameServ.std::_Tree<int,std::pair<in>
00401258   E9 A3500600      JMP GameServ.std::map<int,void *,std::le>
0040125D   E9 AE870800      JMP GameServ.CMoveCheck::Init
00401262   E9 F9490C00      JMP GameServ.gGetItemNumber
00401267   E9 C4A60600      JMP GameServ.CMagicDamage::`scalar delet>
0040126C   E9 FF370E00      JMP GameServ.CSetItemOption::GetSetOptio>
00401271   E9 EA7A0B00      JMP GameServ.BILL_CLASS::BILL_CLASS
00401276   E9 75540600      JMP GameServ.std::vector<EVENT_ID_TIME,s>
0040127B   E9 30400800      JMP GameServ.std::_Tree<std::basic_strin>
00401280   E9 7B771100      JMP GameServ.std::vector<tagPOINT,std::a>
00401285   E9 A6B80D00      JMP GameServ.gUserFindDevilSquareInvitat>
0040128A   E9 B1F90500      JMP GameServ.std::_Construct
0040128F   E9 7CA90500      JMP GameServ.CEledoradoEvent::~CEledorad>
00401294   E9 E73A0200      JMP GameServ.GS_DGAnsCsGulidUnionInfo
00401299   E9 D26A1100      JMP GameServ.std::_Tree<int,std::pair<in>
0040129E   E9 FDE20000      JMP GameServ.gObjMonsterHitDamageUserDel
004012A3   E9 F8B40000      JMP GameServ.std::_Tree<int,std::pair<in>
004012A8   E9 43DD0E00      JMP GameServ.GetItemAttr
004012AD   E9 5EBC0700      JMP GameServ.CBUPS_ItemRequest
004012B2   E9 B9971100      JMP GameServ.CWeapon::GetTargetPointXY
004012B7   E9 746D0700      JMP GameServ.WzUdp::RecvThread
004012BC   E9 2F510600      JMP GameServ.std::map<int,void *,std::le>
004012C1   E9 4A7C0600      JMP GameServ.std::_Tree<int,std::pair<in>
004012C6   E9 852E1200      JMP GameServ.CMultiCheckSum::CompareChec>
004012CB   E9 F0250800      JMP GameServ.Ccloseplayer::Load
004012D0   E9 EBC30500      JMP GameServ.CRingMonsterHerd::`scalar d>
004012D5   E9 065F1100      JMP GameServ.std::allocator<_MONSTER_ITE>
004012DA   E9 D1FC0300      JMP GameServ.CGUseItemRecv
004012DF   E9 8C5E0800      JMP GameServ.std::_Tree<std::basic_strin>
004012E4   E9 47660700      JMP GameServ.WzUdp::`scalar deleting des>
004012E9   E9 02060C00      JMP GameServ.gObjPenaltyDurDown
004012EE   E9 3D4E0900      JMP GameServ.std::_Tree<int,std::pair<in>
004012F3   E9 78C20900      JMP GameServ.CObjUseSkill::SkillChangeUs>
004012F8   E9 D38E0800      JMP GameServ.IsFile
004012FD   E9 8E530600      JMP GameServ.std::vector<EVENT_ID_TIME,s>
00401302   E9 B9A80500      JMP GameServ.CEledoradoEvent::`scalar de>
00401307   E9 B4B60800      JMP GameServ.CWhatsUpDummyServer::~CWhat>
0040130C   E9 AF910A00      JMP GameServ.CDarkSpirit::ModeNormal
00401311   E9 9A5F0800      JMP GameServ.std::_Tree<std::basic_strin>
00401316   E9 A5C10B00      JMP GameServ.gObjMonsterItemLoadScript
0040131B   E9 A0620800      JMP GameServ.std::_Tree<std::basic_strin>
00401320   E9 DBAF0800      JMP GameServ.CWZScriptEncode::Close
00401325   E9 D6940E00      JMP GameServ.CItem::PetValue
0040132A   E9 11360900      JMP GameServ.std::_Tree<int,std::pair<in>
0040132F   E9 4CC20A00      JMP GameServ.std::map<int,TUnionInfo *,s>
00401334   E9 37F70E00      JMP GameServ.CGMMng::ManagerAdd
00401339   E9 F2970200      JMP GameServ.GCJoinSocketResult
0040133E   E9 AD8B0300      JMP GameServ.GCGuildMasterManagerRun
00401343   E9 683C1000      JMP GameServ.CBloodCastle::SetBossMonste>
00401348   E9 C3820000      JMP GameServ.MonsterHerd::GetCurrentLoca>
0040134D   E9 1ECB0A00      JMP GameServ.std::_Tree<int,std::pair<in>
00401352   E9 697B0B00      JMP GameServ.gObjAdd
00401357   E9 248E1000      JMP GameServ.CBloodCastle::SendRewardSco>
0040135C   E9 2F520600      JMP GameServ.std::_Tree<int,std::pair<in>
00401361   E9 1A290200      JMP GameServ.GS_GDReqSiegeEndedChange
00401366   E9 25880800      JMP GameServ.CMoveCheck::Check
0040136B   E9 60E30E00      JMP GameServ.CShop::LoadShopItem
00401370   E9 0B8B0B00      JMP GameServ.BILL_CLASS::GetEndTime
00401375   E9 66C90D00      JMP GameServ.gObjUseCircle
0040137A   E9 B1C50700      JMP GameServ.DevilSquareEventChaosMix
0040137F   E9 EC7D0800      JMP GameServ.LogAddStrHexFunc
00401384   E9 A7710700      JMP GameServ.MapClass::`scalar deleting >
00401389   E9 520C0E00      JMP GameServ.CJewelMixSystem::GetJewelCo>
0040138E   E9 CD8B0400      JMP GameServ.CGUnionList
00401393   E9 98311200      JMP GameServ.CWzMemScript::UnGetC
00401398   E9 B3A20C00      JMP GameServ.gObjTradeItemBoxSet
0040139D   E9 2EBF0800      JMP GameServ.TNotice::TNotice
004013A2   E9 99E20800      JMP GameServ.CGuildClass::`scalar deleti>
004013A7   E9 64CF0300      JMP GameServ.CGAttack
004013AC   E9 6F180B00      JMP GameServ.gObjCharTradeClear
004013B1   E9 0AB50E00      JMP GameServ.ItemGetDefenseDurability
004013B6   E9 55750500      JMP GameServ.std::vector<OBJECTSTRUCT *,>
004013BB   E9 40AE1100      JMP GameServ.CMapServerManager::~CMapSer>
004013C0   E9 FBC10A00      JMP GameServ.std::map<int,TUnionInfo *,s>
004013C5   E9 26A50B00      JMP GameServ.gObjCalDistance
004013CA   E9 B1480C00      JMP GameServ.gPlusItemNumber
004013CF   E9 8C700700      JMP GameServ.PATH::PATH
004013D4   E9 C7200C00      JMP GameServ.gObjMonsterDieLifePlus
004013D9   E9 723E0E00      JMP GameServ.CSetItemOption::IsRequireCl>
004013DE   E9 CD680500      JMP GameServ.CDevilSquareGround::GetMons>
004013E3   E9 88ED0500      JMP GameServ.std::allocator<RINGMONSTER_>
004013E8   E9 83F00500      JMP GameServ.std::vector<RINGMONSTER_EVE>
004013ED   E9 FE110200      JMP GameServ.DGOptionDataSend
004013F2   E9 D9511100      JMP GameServ.std::vector<tagPOINT,std::a>
004013F7   E9 C4780100      JMP GameServ.CMonsterAttr::GetAttr
004013FC   E9 DFC60800      JMP GameServ.CCallStackTrace::ConvertAdd>
00401401   E9 7AE30800      JMP GameServ.CGuildClass::Init
00401406   E9 952C0300      JMP GameServ.GCTradeResponseSend
0040140B   E9 C0350100      JMP GameServ.gObjTrapAttackEnemySearchX
00401410   E9 0B020E00      JMP GameServ.MsgOutput
00401415   E9 96831100      JMP GameServ.std::_Tree<int,std::pair<in>
0040141A   E9 F1880D00      JMP GameServ.gObjItemRandomLevelUp
0040141F   E9 2CD50800      JMP GameServ.PartyClass::Create
00401424   E9 F7830500      JMP GameServ.CBattleGround::Enable
00401429   E9 92230200      JMP GameServ.GS_GDReqCastleNpcRepair
0040142E   E9 6D610500      JMP GameServ.CDevilSquareGround::Clear
00401433   E9 F8ED0A00      JMP GameServ.std::_Tree<int,std::pair<in>
00401438   E9 D39B0400      JMP GameServ.CGReqCsAttkGuildList
0040143D   E9 EE431000      JMP GameServ.CBloodCastle::LevelUp
00401442   E9 790F0900      JMP GameServ.std::_Tree<std::basic_strin>
00401447   E9 049B0400      JMP GameServ.CGReqCsSetEnterHuntZone
0040144C   E9 5F720800      JMP GameServ.LogInit
00401451   E9 FA670800      JMP GameServ.std::operator<
00401456   E9 955C1000      JMP GameServ.CBloodCastle::SendNoticeMes>
0040145B   E9 20660800      JMP GameServ.std::allocator<int>::_Chara>
00401460   E9 4B690800      JMP GameServ.std::pair<std::basic_string>
00401465   E9 A6B60600      JMP GameServ.CMagicDamage::SetEx
0040146A   E9 016D0700      JMP GameServ.MapClass::MapClass
0040146F   E9 5CE90300      JMP GameServ.CGBeattackRecv
00401474   E9 E74E1100      JMP GameServ.std::_Tree<int,std::pair<in>
00401479   E9 82A70800      JMP GameServ.QuaternionSlerp
0040147E   E9 1DF60700      JMP GameServ.SetItemChaosMix
00401483   E9 D8EC0000      JMP GameServ.gObjGetTargetPos
00401488   E9 23CE1100      JMP GameServ.std::vector<_MAPSVR_DATA *,>
0040148D   E9 6E311200      JMP GameServ.CWzMemScript::GetString
00401492   E9 29960000      JMP GameServ.std::_Tree<int,std::pair<in>
00401497   E9 84D51000      JMP GameServ.CChaosCastle::SetMapAttrFil>
0040149C   E9 5FE60800      JMP GameServ.CGuildClass::PrintGuild
004014A1   E9 FA1E0900      JMP GameServ.std::_Tree<std::basic_strin>
004014A6   E9 C58E0800      JMP GameServ.PHeadSubSetW
004014AB   E9 80901000      JMP GameServ.CBloodCastle::SetMonsterKil>
004014B0   E9 DBC10500      JMP GameServ.CRingMonsterHerd::CRingMons>
004014B5   E9 96370900      JMP GameServ.std::map<std::basic_string<>
004014BA   E9 31580700      JMP GameServ.WZQueue::Free
004014BF   E9 DC6C0400      JMP GameServ.CGRequestPetItemCommand
004014C4   E9 07180B00      JMP GameServ.gObjCharZeroSet
004014C9   E9 12D71100      JMP GameServ.std::vector<_MAPSVR_DATA *,>
004014CE   E9 0DAF0D00      JMP GameServ.gObjMonsterCallKill
004014D3   E9 A8770600      JMP GameServ.std::_Tree<int,std::pair<in>
004014D8   E9 D3960500      JMP GameServ.CDragonEvent::End
004014DD   E9 5EF00F00      JMP GameServ.CBloodCastle::CBloodCastle
004014E2   E9 C9800600      JMP GameServ.CItemBag::CItemBag
004014E7   E9 140A1200      JMP GameServ.NpcNoriaRara
004014EC   E9 5F580F00      JMP GameServ.GMEventChipServerConnect
004014F1   E9 2ADE1000      JMP GameServ._CHAOSCASTLE_DATA::Clear
004014F6   E9 25D71100      JMP GameServ.std::vector<_MAPSVR_DATA *,>
004014FB   E9 10D80400      JMP GameServ.GDUnionBreakOff
00401500   E9 8B4E1100      JMP GameServ.std::vector<CHAOSCASTLE_STA>
00401505   E9 36F40600      JMP GameServ.CQuestInfo::InitQuestItem
0040150A   E9 712F1000      JMP GameServ.CBloodCastle::CheckCanParty
0040150F   E9 EC9B0500      JMP GameServ.CDragonEvent::End_Menual
00401514   E9 B73A0100      JMP GameServ.gObjSkylandBossSheildAttack
00401519   E9 82A41100      JMP GameServ.CCastleSiegeSync::GetTaxRat>
0040151E   E9 DDFD0100      JMP GameServ.GDGetWarehouseNoItem
00401523   E9 285D0600      JMP GameServ.std::allocator<void *>::dea>
00401528   E9 13C40D00      JMP GameServ.gObjCheckStatPointUp
0040152D   E9 6E890900      JMP GameServ.CObjBaseAttack::CheckAttack>
00401532   E9 89860900      JMP GameServ.CObjBaseAttack::~CObjBaseAt>
00401537   E9 04331100      JMP GameServ.CChaosCastle::PlayFailedRol>
0040153C   E9 9F770A00      JMP GameServ.gObjSetItemPlusSpecial
00401541   E9 6AF40400      JMP GameServ.WaitFriendAddResult
00401546   E9 E5050200      JMP GameServ.ItemSerialCreateRecv
0040154B   E9 10AC0800      JMP GameServ.CWZScriptEncode::`scalar de>
00401550   E9 1B2B0800      JMP GameServ.CConMember::IsMember
00401555   E9 E6890300      JMP GameServ.CGGuildMasterInfoSave
0040155A   E9 71720000      JMP GameServ.MonsterHerd::AddMonster
0040155F   E9 BCF70E00      JMP GameServ.CGMMng::GetCmd
00401564   E9 67950200      JMP GameServ.GCJoinResult
00401569   E9 B2E50000      JMP GameServ.gObjMonsterMoveCheck
0040156E   E9 7DF80E00      JMP GameServ.CGMMng::GetTokenNumber
00401573   E9 C8B90A00      JMP GameServ.TUnion::GetGuildRelationShi>
00401578   E9 63190F00      JMP GameServ.CMoveCommand::Load
0040157D   E9 1E820700      JMP GameServ.MapClass::ItemGive
00401582   E9 49400C00      JMP GameServ.gObjInventoryItemSet_PShop
00401587   E9 74520F00      JMP GameServ.GameMonsterAllAdd
0040158C   E9 2F4D0600      JMP GameServ.std::vector<EVENT_ID_TIME,s>
00401591   E9 7AD71000      JMP GameServ.CChaosCastle::SetState
00401596   E9 C5430800      JMP GameServ.std::basic_string<char,std:>
0040159B   E9 C0DC0A00      JMP GameServ.std::_Tree<int,std::pair<in>
004015A0   E9 DBDA1000      JMP GameServ.CChaosCastle::SetState_Play>
004015A5   E9 16C40400      JMP GameServ.DGGuildNoticeRecv
004015AA   E9 41F60300      JMP GameServ.TDurMagicKeyChecker::GetVal>
004015AF   E9 CCF50300      JMP GameServ.TDurMagicKeyChecker::IsVali>
004015B4   E9 37600B00      JMP GameServ.gObjAuthorityCodeSet
004015B9   E9 329F0D00      JMP GameServ.gObjGuildWarProc
004015BE   E9 7D031200      JMP GameServ.NpcBattleAnnouncer
004015C3   E9 C8550600      JMP GameServ.std::_Tree<int,std::pair<in>
004015C8   E9 B3C10600      JMP GameServ.CMagicDamage::SkillGetRequi>
004015CD   E9 DEB90A00      JMP GameServ.TUnion::SearchUnion
004015D2   E9 A9330800      JMP GameServ.std::map<std::basic_string<>
004015D7   E9 A4E80D00      JMP GameServ.gObjGetRandomFreeLocation
004015DC   E9 3FB50C00      JMP GameServ.TradeItemInventoryPutTest
004015E1   E9 DAB30100      JMP GameServ.CDbSave::Feee
004015E6   E9 25E70D00      JMP GameServ.gObjGetRandomItemDropLocati>
004015EB   E9 B0A70000      JMP GameServ.std::_Tree<int,std::pair<in>
004015F0   E9 FB0D0900      JMP GameServ.std::pair<std::basic_string>
004015F5   E9 E61B0900      JMP GameServ.std::_Tree<int,std::pair<in>
004015FA   E9 B1BC0100      JMP GameServ.DBSockMng::Send
004015FF   E9 3C0D0500      JMP GameServ.CMultiAttackHackCheck::`sca>
00401604   E9 C7430C00      JMP GameServ.gObjInventoryInsertItem
00401609   E9 52E00900      JMP GameServ.CObjUseSkill::GetAngle
0040160E   E9 6D620800      JMP GameServ.std::_Tree<std::basic_strin>
00401613   E9 28350900      JMP GameServ.std::_Tree<int,std::pair<in>
00401618   E9 73990500      JMP GameServ.CDragonEvent::Run
0040161D   E9 8EAB1100      JMP GameServ.CMapServerManager::`scalar >
00401622   E9 69980600      JMP GameServ.CItemBagEx::DropEventItem
00401627   E9 947F0E00      JMP GameServ.CItem::IsClass
0040162C   E9 9F8E0300      JMP GameServ.GCManagerGuildWarEnd
00401631   E9 0A910300      JMP GameServ.GCManagerGuildWarSet
00401636   E9 65140500      JMP GameServ.NSerialCheck::GetSerial
0040163B   E9 50281100      JMP GameServ.CChaosCastle::CheckMonsterI>
00401640   E9 FB990300      JMP GameServ.GCGuildWarRequestSend
00401645   E9 F6790500      JMP GameServ.std::_Destroy
0040164A   E9 91CE0B00      JMP GameServ.retResistance
0040164F   E9 CC570800      JMP GameServ.std::_Tree<std::basic_strin>
00401654   E9 27130500      JMP GameServ.NSerialCheck::`scalar delet>
00401659   E9 72720500      JMP GameServ.std::vector<OBJECTSTRUCT *,>
0040165E   E9 2D1D1200      JMP GameServ.CGameServerAuth::`scalar de>
00401663   E9 A8DA0A00      JMP GameServ.std::_Tree<int,std::pair<in>
00401668   E9 33391100      JMP GameServ.CChaosCastle::ProcessTrapSt>
0040166D   E9 EE081000      JMP GameServ.CBloodCastle::ProcState_Clo>
00401672   E9 69010B00      JMP GameServ.MonsterAndMsgProc
00401677   E9 B4060500      JMP GameServ.FriendMemoDelReq
0040167C   E9 7F911000      JMP GameServ.CBloodCastle::CheckMonsterK>
00401681   E9 CA120B00      JMP GameServ.gObjCloseSet
00401686   E9 15360200      JMP GameServ.GS_DGAnsResetSiegeGuildInfo
0040168B   E9 30140600      JMP GameServ.StarOfXMasOpenEven
00401690   E9 BB710600      JMP GameServ.std::_Tree<int,std::pair<in>
00401695   E9 76BF0500      JMP GameServ.CEledoradoEvent::End_Menual
0040169A   E9 A1800100      JMP GameServ.CMonsterAttr::LoadAttr
0040169F   E9 3C561100      JMP GameServ.std::_Tree<int,std::pair<in>
004016A4   E9 475C0600      JMP GameServ.std::_Tree<int,std::pair<in>
004016A9   E9 D24B0600      JMP GameServ.std::vector<EVENT_ID_TIME,s>
004016AE   E9 1D200200      JMP GameServ.GS_GDReqCastleNpcBuy
004016B3   E9 D8170400      JMP GameServ.GCServerCmd
004016B8   E9 53A71000      JMP GameServ._CHAOSCASTLE_USER::Clear
004016BD   E9 0E6A0C00      JMP GameServ.gObjChaosItemSet
004016C2   E9 B94D1100      JMP GameServ.std::vector<CHAOSCASTLE_STA>
004016C7   E9 A41C0900      JMP GameServ.std::_Tree<std::basic_strin>
004016CC   E9 DFF91100      JMP GameServ.std::_Construct
004016D1   E9 BA400E00      JMP GameServ.CItem::Clear
004016D6   E9 B5EC0F00      JMP GameServ.CGate::CheckGateLevel
004016DB   E9 20290900      JMP GameServ.std::_Tree<int,std::pair<in>
004016E0   E9 FB081200      JMP GameServ.NpcRorensiaSmith
004016E5   E9 86BB0800      JMP GameServ.TNotice::GCServerMsgStringS>
004016EA   E9 71610500      JMP GameServ.CDevilSquareGround::RegenBo>
004016EF   E9 AC360700      JMP GameServ.CStreamPacketEngine_Server:>
004016F4   E9 E7890700      JMP GameServ.PATH::SetMapDimensions
004016F9   E9 42030200      JMP GameServ.PetItemSerialCreateSend
004016FE   E9 4DC70500      JMP GameServ.CRingAttackEvent::StartEven>
00401703   E9 38290800      JMP GameServ.CConMember::Init
00401708   E9 A3E80700      JMP GameServ.DefaultChaosMix
0040170D   E9 4EDB0E00      JMP GameServ.CShop::InsertItem
00401712   E9 897F1000      JMP GameServ.CBloodCastle::GiveReward_Fa>
00401717   E9 549B0700      JMP GameServ.MapClass::PathFinding3
0040171C   E9 5F990700      JMP GameServ.PATH::GetPathX
00401721   E9 BA3A0100      JMP GameServ.IsCanNotItemDtopInDevilSqua>
00401726   E9 35FF0800      JMP GameServ.std::_Tree<std::basic_strin>
0040172B   E9 10171200      JMP GameServ.NpcElderCircle
00401730   E9 6BCE0B00      JMP GameServ.retCalcSkillResistance
00401735   E9 36E50500      JMP GameServ.std::vector<RINGMONSTER_DAT>
0040173A   E9 91990300      JMP GameServ.GCGuildWarRequestSendRecv
0040173F   E9 BC700500      JMP GameServ.std::vector<OBJECTSTRUCT *,>
00401744   E9 97A40B00      JMP GameServ.gObjAddMsgSend
00401749   E9 72560F00      JMP GameServ.GMDataServerConnect
0040174E   E9 DD910500      JMP GameServ.CDragonEvent::`scalar delet>
00401753   E9 08CE0100      JMP GameServ.DataServerLogin
00401758   E9 73500900      JMP GameServ.CObjAttack::`scalar deletin>
0040175D   E9 1E920400      JMP GameServ.CGReqGuildRegInfo
00401762   E9 39270200      JMP GameServ.GS_GDReqMapSvrMsgMultiCast
00401767   E9 74590F00      JMP GameServ.GMRankingClientMsgProc
0040176C   E9 FF200200      JMP GameServ.GS_GDReqCastleNpcUpgrade
00401771   E9 0AF40A00      JMP GameServ.TUnionInfo::`scalar deletin>
00401776   E9 25790500      JMP GameServ.std::_Construct
0040177B   E9 B08E0E00      JMP GameServ.CItem::PetItemLevelDown
00401780   E9 CB970E00      JMP GameServ.CItem::DurabilityDown2
00401785   E9 26CB0600      JMP GameServ.CMagicInf::GetDamage
0040178A   E9 21D10800      JMP GameServ.PartyClass::GetIndex
0040178F   E9 1CEE0400      JMP GameServ.FriendAddRequest
00401794   E9 C73D0300      JMP GameServ.CGPShopAnsOpen
00401799   E9 62E50E00      JMP GameServ.CShop::LoadShopItem
0040179E   E9 5D930000      JMP GameServ.std::_Tree<int,std::pair<in>
004017A3   E9 888A0A00      JMP GameServ.CDarkSpirit::`scalar deleti>
004017A8   E9 73561000      JMP GameServ.CBloodCastle::SendCastleDoo>
004017AD   E9 0EEE0000      JMP GameServ.gObjMonsterSearchEnemy
004017B2   E9 29DF0400      JMP GameServ.DGRelationShipListRecv
004017B7   E9 84521000      JMP GameServ.CBloodCastle::SendCastleEnt>
004017BC   E9 DFBB0000      JMP GameServ.CKalimaGate::`scalar deleti>
004017C1   E9 2A0E1100      JMP GameServ.CChaosCastle::CheckPlayStar>
004017C6   E9 F59F1100      JMP GameServ.CCastleSiegeSync::CCastleSi>
004017CB   E9 107C0500      JMP GameServ.std::_Insertion_sort_1
004017D0   E9 6BBA0000      JMP GameServ.std::ctype<unsigned short>:>
004017D5   E9 D6BA0000      JMP GameServ.std::ctype<unsigned short>:>
004017DA   E9 41231200      JMP GameServ.CLargeRand::reloadMT
004017DF   E9 EC6E1100      JMP GameServ.std::_Tree<int,std::pair<in>
004017E4   E9 A7E21100      JMP GameServ.std::_Tree<int,std::pair<in>
004017E9   E9 02890300      JMP GameServ.CGGuildMasterCreateCancel
004017EE   E9 5D8A0E00      JMP GameServ.CItem::DecPetItemExp
004017F3   E9 78F90D00      JMP GameServ.gObjNotifyUseWeaponDamage
004017F8   E9 93D00600      JMP GameServ.CSkillHitBox::~CSkillHitBox
004017FD   E9 1E4F1100      JMP GameServ.std::pair<int,_MONSTER_ITEM>
00401802   E9 49F61100      JMP GameServ.std::vector<_MAPSVR_DATA *,>
00401807   E9 14B40600      JMP GameServ.CMagicDamage::Set
0040180C   E9 CF950600      JMP GameServ.CItemBagEx::IsEnableEventIt>
00401811   E9 4A4F0600      JMP GameServ.std::vector<EVENT_ID_TIME,s>
00401816   E9 F5C50A00      JMP GameServ.std::pair<int const ,TUnion>
0040181B   E9 A0D50400      JMP GameServ.DGUnionBreakOff
00401820   E9 BB8A0800      JMP GameServ.PHeadSubSetB
00401825   E9 96930400      JMP GameServ.GCAnsCsGateOperate
0040182A   E9 61EC0A00      JMP GameServ.std::_Tree<int,std::pair<in>
0040182F   E9 4C6E0600      JMP GameServ.std::_Tree<int,std::pair<in>
00401834   E9 C77B0900      JMP GameServ.CObjAttack::GetAttackDamage>
00401839   E9 42980A00      JMP GameServ.CDarkSpirit::SetMode
0040183E   E9 CD0C0900      JMP GameServ.std::_Tree<int,std::pair<in>
00401843   E9 B8750500      JMP GameServ.std::vector<OBJECTSTRUCT *,>
00401848   E9 33A51000      JMP GameServ._CHAOSCASTLE_DATA::_CHAOSCA>
0040184D   E9 0E920200      JMP GameServ.GCJoinBillCheckSend
00401852   E9 79240900      JMP GameServ.std::_Tree<std::basic_strin>
00401857   E9 44680800      JMP GameServ.operator delete
0040185C   E9 9FF31100      JMP GameServ.std::_Tree<int,std::pair<in>
00401861   E9 FA280E00      JMP GameServ.CSetItemOption::LoadOptionI>
00401866   E9 45460C00      JMP GameServ.gObjOnlyInventoryInsertItem
0040186B   E9 F0E90A00      JMP GameServ.std::vector<int,std::alloca>
00401870   E9 FB670800      JMP GameServ.std::char_traits<char>::mov>
00401875   E9 76780500      JMP GameServ.std::_Val_type
0040187A   E9 51780600      JMP GameServ.std::allocator<EVENT_ID_TIM>
0040187F   E9 BC550800      JMP GameServ.std::_Tree<std::basic_strin>
00401884   E9 179E0B00      JMP GameServ.gObjGetIndex
00401889   E9 92640700      JMP GameServ.WzUdp::SendData
0040188E   E9 ADA40400      JMP GameServ.ExDataServerLoginResult
00401893   E9 F8DE0900      JMP GameServ.CObjUseSkill::SkillAreaChec>
00401898   E9 A3330500      JMP GameServ.CDevilSquare::ProcClose
0040189D   E9 0E7A0600      JMP GameServ.std::copy
004018A2   E9 F9260F00      JMP GameServ.CMoveCommand::Move
004018A7   E9 34BD0500      JMP GameServ.CEledoradoEvent::SetMenualS>
004018AC   E9 DF250E00      JMP GameServ.CSetItemOption::LoadTypeInf>
004018B1   E9 BAC70900      JMP GameServ.CObjUseSkill::SkillWheel
004018B6   E9 A5AA0700      JMP GameServ.ChaosBoxCheck
004018BB   E9 C0D00600      JMP GameServ.CSkillHitBox::HitCheck
004018C0   E9 6B370600      JMP GameServ.std::map<int,void *,std::le>
004018C5   E9 466D0D00      JMP GameServ.gObjGetMagic
004018CA   E9 F1A61100      JMP GameServ._MAPSVR_DATA::~_MAPSVR_DATA
004018CF   E9 FC551100      JMP GameServ.std::vector<CHAOSCASTLE_STA>
004018D4   E9 D7FD0500      JMP GameServ.CItemBag::GetExItemCount
004018D9   E9 E2F10600      JMP GameServ.CQuestInfo::GetQuestState
004018DE   E9 DD310B00      JMP GameServ.gObjSetBP
004018E3   E9 883D1100      JMP GameServ.CChaosCastle::GiveWinnerIte>
004018E8   E9 D3330200      JMP GameServ.GS_DGAnsResetRegSiegeInfo
004018ED   E9 AE251200      JMP GameServ.CMultiCheckSum::`scalar del>
004018F2   E9 593A0400      JMP GameServ.CGRequestEnterChaosCastle
004018F7   E9 94410800      JMP GameServ.std::_Tree<std::basic_strin>
004018FC   E9 5FC80500      JMP GameServ.CRingAttackEvent::EnableEve>
00401901   E9 8AF00E00      JMP GameServ.CGMCommand::Add
00401906   E9 351F0900      JMP GameServ.std::_Tree<std::basic_strin>
0040190B   E9 C02B1200      JMP GameServ.CWzMemScript::GetC
00401910   E9 DB9B0C00      JMP GameServ.gObjTradeRectCheck
00401915   E9 06280A00      JMP GameServ.CStatMng::Init
0040191A   E9 71C40500      JMP GameServ.CRingAttackEvent::~CRingAtt>
0040191F   E9 9C730300      JMP GameServ.GCPartyDelUserSend
00401924   E9 87080500      JMP GameServ._GUILD_INFO_STRUCT::SetTime>
00401929   E9 D2710500      JMP GameServ.std::allocator<OBJECTSTRUCT>
0040192E   E9 3DDA0C00      JMP GameServ.ViewportAdd2
00401933   E9 C8D50500      JMP GameServ.CRingAttackEvent::ProcState>
00401938   E9 B3A70D00      JMP GameServ.gObjMonsterCall
0040193D   E9 3ED31100      JMP GameServ.std::vector<_MAPSVR_DATA *,>
00401942   E9 697E0E00      JMP GameServ.CItem::PlusSpecial
00401947   E9 B4CF0900      JMP GameServ.CObjUseSkill::SkillSuddenIc>
0040194C   E9 0F020600      JMP GameServ.GoldMedalOpenEven
00401951   E9 2AA61000      JMP GameServ.CChaosCastle::Run
00401956   E9 75D20E00      JMP GameServ.zzzItemLevel
0040195B   E9 60CC0600      JMP GameServ.CSkillDelay::`scalar deleti>
00401960   E9 0BE60800      JMP GameServ.CGuildClass::SearchGuild_Nu>
00401965   E9 B6DE0400      JMP GameServ.DGUnionListRecv
0040196A   E9 B1B70D00      JMP GameServ.gObjSetPosition
0040196F   E9 2C0E1100      JMP GameServ.CChaosCastle::GetCurPlayUse>
00401974   E9 B7ED1000      JMP GameServ.CChaosCastle::SendFailMessa>
00401979   E9 729C0700      JMP GameServ.PATH::FindNextDir2
0040197E   E9 6D321100      JMP GameServ.CChaosCastle::RewardUserEXP
00401983   E9 285E0500      JMP GameServ.CDevilSquareGround::SetBonu>
00401988   E9 C3F00D00      JMP GameServ.gObjSetKillCount
0040198D   E9 BE2F0300      JMP GameServ.CGPShopReqSetItemPrice
00401992   E9 197D0500      JMP GameServ.CBattleGround::CBattleGroun>
00401997   E9 346D0300      JMP GameServ.CGPartyListAll
0040199C   E9 BFFF1100      JMP GameServ.NpcFasi
004019A1   E9 4AA61100      JMP GameServ._MAPSVR_DATA::Clear
004019A6   E9 25D50A00      JMP GameServ.std::_Tree<int,std::pair<in>
004019AB   E9 50060700      JMP GameServ.CwsGameServer::CreateServer
004019B0   E9 EB471000      JMP GameServ.CBloodCastle::BlockCastleEn>
004019B5   E9 36C60700      JMP GameServ.LogChaosItem
004019BA   E9 91830500      JMP GameServ.CBattleSoccerManager::~CBat>
004019BF   E9 BC6C0C00      JMP GameServ.gObjInventoryInsertItemPos
004019C4   E9 872A0200      JMP GameServ.GS_GDReqCastleInitData
004019C9   E9 B22D0800      JMP GameServ.std::pair<std::basic_string>
004019CE   E9 ADF60A00      JMP GameServ.std::vector<int,std::alloca>
004019D3   E9 28A50900      JMP GameServ.CObjUseSkill::UseSkill
004019D8   E9 33BE0800      JMP GameServ.CCallStackTrace::`scalar de>
004019DD   E9 EE350800      JMP GameServ.std::_Tree<std::basic_strin>
004019E2   E9 99FC0500      JMP GameServ.CItemBag::GetNormalItemCoun>
004019E7   E9 647D1100      JMP GameServ.std::allocator<_MONSTER_ITE>
004019EC   E9 6F750700      JMP GameServ.MapClass::SaveItemInfo
004019F1   E9 FA290200      JMP GameServ.GS_GDReqResetRegSiegeInfo
004019F6   E9 75970E00      JMP GameServ.CPetItemExp::CPetItemExp
004019FB   E9 907F0F00      JMP GameServ.GameServerInfoSendStart
00401A00   E9 7B730C00      JMP GameServ.gObjInventoryMoveItem
00401A05   E9 46FC0700      JMP GameServ.DarkHorseChaosMix
00401A0A   E9 412F0800      JMP GameServ.std::map<std::basic_string<>
00401A0F   E9 EC760600      JMP GameServ.std::allocator<void *>::_Ch>
00401A14   E9 D7950000      JMP GameServ.std::_Tree<int,std::pair<in>
00401A19   E9 F2720B00      JMP GameServ.gObjDestroy
00401A1E   E9 6DCA0600      JMP GameServ.MagicByteConvert
00401A23   E9 A86C0600      JMP GameServ.std::_Tree<int,std::pair<in>
00401A28   E9 83600800      JMP GameServ.std::_Tree<std::basic_strin>
00401A2D   E9 DE940700      JMP GameServ.PATH::CanWeMoveForward
00401A32   E9 79AB0300      JMP GameServ.GCWarehouseInventoryMoneySe>
00401A37   E9 44550F00      JMP GameServ.GMServerMsgProc
00401A3C   E9 DFE60D00      JMP GameServ.gObjCheckRival
00401A41   E9 CAED0700      JMP GameServ.BloodCastleItemChaosMix
00401A46   E9 C5D31000      JMP GameServ.CChaosCastle::SetState_None
00401A4B   E9 90F70800      JMP GameServ.std::map<int,_GUILD_INFO_ST>
00401A50   E9 FB4A0200      JMP GameServ.GJReqMapSvrAuth
00401A55   E9 76D21100      JMP GameServ.std::map<int,_MAPSVR_DATA *>
00401A5A   E9 91BD0A00      JMP GameServ.std::_Tree<int,std::pair<in>
00401A5F   E9 1CCC0800      JMP GameServ.PartyClass::`scalar deletin>
00401A64   E9 771C0800      JMP GameServ.CLoginCount::~CLoginCount
00401A69   E9 421D1200      JMP GameServ.CGameServerAuth::GetClientV>
00401A6E   E9 7D150900      JMP GameServ.std::_Tree<int,std::pair<in>
00401A73   E9 780C0300      JMP GameServ.ItemDurRepaire
00401A78   E9 43450200      JMP GameServ.UserNoticeRecv
00401A7D   E9 BE340700      JMP GameServ.DataSend
00401A82   E9 D97B1100      JMP GameServ.std::vector<tagPOINT,std::a>
00401A87   E9 44FA0B00      JMP GameServ.gObjChangeDurProc
00401A8C   E9 0F8A0800      JMP GameServ.CWhisperCash::CWhisperCash
00401A91   E9 2A270600      JMP GameServ.EGRecvChangeRena
00401A96   E9 95280200      JMP GameServ.GS_GDReqResetCastleTaxInfo
00401A9B   E9 008A1000      JMP GameServ.CBloodCastle::SendAllUserAn>
00401AA0   E9 FBFD0600      JMP GameServ.CQuestInfo::QuestAccept
00401AA5   E9 06580500      JMP GameServ.CDevilSquareGround::`scalar>
00401AAA   E9 31470400      JMP GameServ.GCNPggSendCheckSum
00401AAF   E9 5C2F0200      JMP GameServ.GS_DGAnsGuildSetGiveUp
00401AB4   E9 77E20A00      JMP GameServ.std::_Tree<int,std::pair<in>
00401AB9   E9 12B90100      JMP GameServ.DBSockMng::MsgProc
00401ABE   E9 3D760B00      JMP GameServ.gObjMonsterRecall
00401AC3   E9 28270A00      JMP GameServ.CStatMng::GetMaxStat
00401AC8   E9 D3E90400      JMP GameServ.FriendStateRecv
00401ACD   E9 1EAF0800      JMP GameServ.CWhatsUpDummyServer::Start
00401AD2   E9 B90A1100      JMP GameServ.CChaosCastle::CheckCanEnter
00401AD7   E9 B48E0000      JMP GameServ.std::_Tree<int,std::pair<in>
00401ADC   E9 6F811100      JMP GameServ.std::_Destroy
00401AE1   E9 9A940A00      JMP GameServ.CDarkSpirit::SetTarget
00401AE6   E9 256B0700      JMP GameServ.MapClass::free
00401AEB   E9 104B0600      JMP GameServ.std::pair<int,void *>::pair>
00401AF0   E9 4BE50500      JMP GameServ.std::allocator<RINGMONSTER_>
00401AF5   E9 D6570600      JMP GameServ.std::_Tree<int,std::pair<in>
00401AFA   E9 01580500      JMP GameServ.CDevilSquareGround::~CDevil>
00401AFF   E9 5C830200      JMP GameServ.GCEventStateSend
00401B04   E9 57190600      JMP GameServ.KundunEventItemBoxOpen
00401B09   E9 72290900      JMP GameServ.std::_Tree<int,std::pair<in>
00401B0E   E9 BDF40800      JMP GameServ.std::map<std::basic_string<>
00401B13   E9 98560800      JMP GameServ.std::_Tree<std::basic_strin>
00401B18   E9 53C41100      JMP GameServ.std::map<int,_MAPSVR_DATA *>
00401B1D   E9 BEB60000      JMP GameServ.std::_Allocate
00401B22   E9 E9BA0400      JMP GameServ.DGGuildMasterListRecv
00401B27   E9 F49C0900      JMP GameServ.CObjUseSkill::GetUseMana
00401B2C   E9 9F380900      JMP GameServ.std::_Tree<std::basic_strin>
00401B31   E9 2A2D0800      JMP GameServ.std::map<std::basic_string<>
00401B36   E9 D5F90800      JMP GameServ.std::pair<std::basic_string>
00401B3B   E9 B0790600      JMP GameServ.std::_Construct
00401B40   E9 CB171200      JMP GameServ.CGameServerAuth::CGameServe>
00401B45   E9 B6470900      JMP GameServ.std::_Construct
00401B4A   E9 11081100      JMP GameServ.CChaosCastle::CheckEnterIte>
00401B4F   E9 1CC50A00      JMP GameServ.std::_Tree<int,std::pair<in>
00401B54   E9 177C0500      JMP GameServ.CBattleGround::SetGroundRec>
00401B59   E9 A2EB0B00      JMP GameServ.gObjUniriaSprite
00401B5E   E9 5D4A0600      JMP GameServ.std::_Tree<int,std::pair<in>
00401B63   E9 48871100      JMP GameServ.CMercenary::`scalar deletin>
00401B68   E9 43B90D00      JMP GameServ.gObjGetManaItemPos
00401B6D   E9 BE750D00      JMP GameServ.gObjMagicDel
00401B72   E9 E9820B00      JMP GameServ.BILL_CLASS::GetEndsDays
00401B77   E9 94CA0600      JMP GameServ.CSkillDelay::~CSkillDelay
00401B7C   E9 8F171000      JMP GameServ.CBloodCastle::GetCurrentSta>
00401B81   E9 4AA31000      JMP GameServ.CChaosCastle::~CChaosCastle
00401B86   E9 958C0000      JMP GameServ.std::map<int,_MONSTER_HERD_>
00401B8B   E9 804E0C00      JMP GameServ.gObjInventoryInsertItem
00401B90   E9 8B9F0B00      JMP GameServ.gObjSetInventory1Pointer
00401B95   E9 36690000      JMP GameServ.MonsterHerd::MonsterHerd
00401B9A   E9 11AB0E00      JMP GameServ.HasItemDurability
00401B9F   E9 3C8E0400      JMP GameServ.GCAnsRegGuildMark
00401BA4   E9 B7E70900      JMP GameServ.CObjUseSkill::SkillRecallPa>
00401BA9   E9 725C0800      JMP GameServ.std::_Tree<std::basic_strin>
00401BAE   E9 FD110300      JMP GameServ.CGTradeRequestSend
00401BB3   E9 E8021200      JMP GameServ.NpcDeviasGuard
00401BB8   E9 B3A31100      JMP GameServ._MAPSVR_DATA::`scalar delet>
00401BBD   E9 DE400900      JMP GameServ.std::_Tree<std::basic_strin>
00401BC2   E9 99AD0800      JMP GameServ.CWhatsUpDummyServer::CWhats>
00401BC7   E9 948D0400      JMP GameServ.GCAnsGiveUpCastleSiege
00401BCC   E9 2F1E1200      JMP GameServ.CLargeRand::`scalar deletin>
00401BD1   E9 EAF30600      JMP GameServ.CQuestInfo::QuestClearCondi>
00401BD6   E9 956F0200      JMP GameServ.PEchoProc
00401BDB   E9 F0500200      JMP GameServ.DataEncryptCheck
00401BE0   E9 1B330800      JMP GameServ.std::_Tree<std::basic_strin>
00401BE5   E9 66890800      JMP GameServ.CWhisperCash::AddCash
00401BEA   E9 118D0400      JMP GameServ.CGReqRegCastleSiege
00401BEF   E9 5C870400      JMP GameServ.CGReqMapSvrAuth
00401BF4   E9 E7ED0D00      JMP GameServ._GUILD_INFO_STRUCT::GetTime>
00401BF9   E9 823E0900      JMP GameServ.std::_Tree<int,std::pair<in>
00401BFE   E9 7D2B0400      JMP GameServ.CQuestInfo::GetQeustCount
00401C03   E9 487A0600      JMP GameServ.CItemBag::`scalar deleting >
00401C08   E9 A3A51100      JMP GameServ.CMapServerManager::`scalar >
00401C0D   E9 6EBC0600      JMP GameServ.CMagicDamage::GetSkillAttr
00401C12   E9 89B20800      JMP GameServ.TNotice::MakeNoticeMsgEx
00401C17   E9 E4CE0800      JMP GameServ.PartyClass::SetLevel
00401C1C   E9 BF1C0E00      JMP GameServ.CSetItemOption::LoadOptionI>
00401C21   E9 2A0D0500      JMP GameServ.NSerialCheck::NSerialCheck
00401C26   E9 65160E00      JMP GameServ.CSetItemOption::LoadTypeInf>
00401C2B   E9 A00D0500      JMP GameServ.NSerialCheck::~NSerialCheck
00401C30   E9 EB440700      JMP GameServ.MyWinsockBase::GetConnect
00401C35   E9 36930400      JMP GameServ.GCAnsCsSetEnterHuntZone
00401C3A   E9 F1360F00      JMP GameServ.gSetDate
00401C3F   E9 5C2A0200      JMP GameServ.GS_DGAnsCastleTotalInfo
00401C44   E9 17900400      JMP GameServ.GCAnsCsNotifyProgress
00401C49   E9 22910400      JMP GameServ.GCAnsCsMiniMapData
00401C4E   E9 CD250200      JMP GameServ.GS_GDReqCastleStateSync
00401C53   E9 480D0100      JMP GameServ.gObjMonsterAttack
00401C58   E9 53020E00      JMP GameServ.CJewelMixSystem::CJewelMixS>
00401C5D   E9 6E630700      JMP GameServ.WzUdp::Run
00401C62   E9 C99C0600      JMP GameServ.CMagicDamage::`scalar delet>
00401C67   E9 54470500      JMP GameServ.CDevilSquare::gObjMonsterEx>
00401C6C   E9 CF780700      JMP GameServ.MapClass::MoneyItemDrop
00401C71   E9 6A1A0C00      JMP GameServ.gObjLifeCheck
00401C76   E9 B5A20400      JMP GameServ.GDGuildCreateRecv
00401C7B   E9 20060600      JMP GameServ.HeartOfLoveOpenEven
00401C80   E9 3B490500      JMP GameServ.CDevilSquare::gObjExpParty
00401C85   E9 E62E0200      JMP GameServ.CCastleSiegeSync::SetTaxRat>
00401C8A   E9 21F10E00      JMP GameServ.CGMMng::GetTokenString
00401C8F   E9 FC8D0E00      JMP GameServ.CItem::IsExtDefenseSuccessf>
00401C94   E9 67EF0500      JMP GameServ.std::_Allocate
00401C99   E9 F27D0000      JMP GameServ.MonsterHerd::MonsterAttackA>
00401C9E   E9 5D8D0800      JMP GameServ.VectorCompare
00401CA3   E9 D8C70800      JMP GameServ.std::basic_string<char,std:>
00401CA8   E9 533E0700      JMP GameServ.CloseClient
00401CAD   E9 EEEA0500      JMP GameServ.std::vector<RINGMONSTER_DAT>
00401CB2   E9 39A10B00      JMP GameServ.gObjAddMsgSendDelay
00401CB7   E9 D4AE0800      JMP GameServ.CWhatsUpDummyServer::Parent>
00401CBC   E9 5FC20600      JMP GameServ.CMagicInf::~CMagicInf
00401CC1   E9 EAAE0B00      JMP GameServ.gObjBackSpring2
00401CC6   E9 65370900      JMP GameServ.std::_Tree<std::basic_strin>
00401CCB   E9 20EE0800      JMP GameServ.CGuildClass::DelMember
00401CD0   E9 AB8D0400      JMP GameServ.CGReqNpcUpgrade
00401CD5   E9 968B0300      JMP GameServ.GCGuildWarRequestResult
00401CDA   E9 31800E00      JMP GameServ.CItem::SetPetItemInfo
00401CDF   E9 1C031200      JMP GameServ.NpcNoriJangIn
00401CE4   E9 A7300800      JMP GameServ.std::basic_string<char,std:>
00401CE9   E9 D2C01000      JMP GameServ.CChaosCastle::PullObjInnerP>
00401CEE   E9 0DD10600      JMP GameServ.CQuestInfo::LoadQuestInfo
00401CF3   E9 08950100      JMP GameServ.CMonsterSetBase::LoadSetBas>
00401CF8   E9 23080700      JMP GameServ.CWzMultiCastSock::DoEnumIpA>
00401CFD   E9 EEB60000      JMP GameServ.CKalimaGate::~CKalimaGate
00401D02   E9 F9821100      JMP GameServ.CGuardian::`scalar deleting>
00401D07   E9 94070900      JMP GameServ.std::_Tree<int,std::pair<in>
00401D0C   E9 0F520700      JMP GameServ.WZQueue::AddToQueue
00401D11   E9 3AE00500      JMP GameServ.std::vector<RINGMONSTER_EVE>
00401D16   E9 552D0700      JMP GameServ.CStreamPacketEngine_Server:>
00401D1B   E9 F0F11100      JMP GameServ.std::_Tree<int,std::pair<in>
00401D20   E9 CBF20B00      JMP GameServ.gObjSecondDurDown
00401D25   E9 A6420900      JMP GameServ.std::_Tree<int,std::pair<in>
00401D2A   E9 D1500B00      JMP GameServ.gObjCanItemTouch
00401D2F   E9 EC380200      JMP GameServ.GJPAccountBlock
00401D34   E9 67A10700      JMP GameServ.CMapItem::`scalar deleting >
00401D39   E9 723A0C00      JMP GameServ.gObjInventoryDeleteItem
00401D3E   E9 9D1A0D00      JMP GameServ.gObjViewportListProtocolCre>
00401D43   E9 98D40A00      JMP GameServ.std::_Tree<int,std::pair<in>
00401D48   E9 E3BF0F00      JMP GameServ.GameServerStart
00401D4D   E9 CEF20900      JMP GameServ.DecPartyMemberHPandMP
00401D52   E9 496F1100      JMP GameServ.std::allocator<tagPOINT>::d>
00401D57   E9 24521100      JMP GameServ.std::allocator<CHAOSCASTLE_>
00401D5C   E9 AF7F0200      JMP GameServ.GCServerMsgSend
00401D61   E9 6A231200      JMP GameServ.CMultiCheckSum::LoadFile
00401D66   E9 C5690500      JMP GameServ.CDevilSquareGround::SendRan>
00401D6B   E9 50800300      JMP GameServ.CGGuildMasterAnswerRecv
00401D70   E9 4B120800      JMP GameServ.CAcceptIp::~CAcceptIp
00401D75   E9 86840100      JMP GameServ.`vector constructor iterato>
00401D7A   E9 01011200      JMP GameServ.NpcDeviasWizard
00401D7F   E9 8C240D00      JMP GameServ.gObjViewportListProtocol
00401D84   E9 07140900      JMP GameServ.std::_Tree<int,std::pair<in>
00401D89   E9 12960400      JMP GameServ.CGReqWeaponDamageValue
00401D8E   E9 9D990200      JMP GameServ.GCLevelUpMsgSend
00401D93   E9 18BC0F00      JMP GameServ.WinMain
00401D98   E9 D3780500      JMP GameServ.std::_Iter_swap
00401D9D   E9 BE670200      JMP GameServ.CGLiveClient
00401DA2   E9 19011200      JMP GameServ.NpcDeviasWareHousemen
00401DA7   E9 C48D0900      JMP GameServ.CObjBaseAttack::GetTargetDe>
00401DAC   E9 5F5C0800      JMP GameServ.std::allocator<char>::alloc>
00401DB1   E9 9A310800      JMP GameServ.std::_Tree<std::basic_strin>
00401DB6   E9 D5D80800      JMP GameServ.std::map<std::basic_string<>
00401DBB   E9 60000500      JMP GameServ.FriendMemoDelResult
00401DC0   E9 4BBA0400      JMP GameServ.DGGuildScoreUpdate
00401DC5   E9 068C0000      JMP GameServ.std::_Tree<int,std::pair<in>
00401DCA   E9 C1B11000      JMP GameServ.CChaosCastle::ProcState_Clo>
00401DCF   E9 8CC90800      JMP GameServ.PartyClass::Isleader
00401DD4   E9 D78D0E00      JMP GameServ.CItem::IsExtAttackRate2
00401DD9   E9 026A0800      JMP GameServ.LogDataSet
00401DDE   E9 CD3C0800      JMP GameServ.std::_Tree<std::basic_strin>
00401DE3   E9 D8D80800      JMP GameServ.CGuildClass::~CGuildClass
00401DE8   E9 93930800      JMP GameServ.AngleIMatrix
00401DED   E9 AE370200      JMP GameServ.GJPAccountFail
00401DF2   E9 C9660200      JMP GameServ.MsgSendV2
00401DF7   E9 844E0200      JMP GameServ.PacketCheckTime
00401DFC   E9 7FBA0A00      JMP GameServ.std::_Tree<int,std::pair<in>
00401E01   E9 DA280200      JMP GameServ.GS_DGAnsCastleNpcBuy
00401E06   E9 65CD1100      JMP GameServ.std::_Tree<int,std::pair<in>
00401E0B   E9 50470F00      JMP GameServ.GraphPaint
00401E10   E9 FB6D0800      JMP GameServ.LogAddTimeDateVoid
00401E15   E9 F6930000      JMP GameServ.std::allocator<_MONSTER_HER>
00401E1A   E9 31891100      JMP GameServ.ST_WEAPON_CAL_DAMAGER_INFO:>
00401E1F   E9 1C1A0800      JMP GameServ.Ccloseplayer::`scalar delet>
00401E24   E9 473B0E00      JMP GameServ.CItem::IsSetItem
00401E29   E9 E2C00000      JMP GameServ.CKalimaGate::KalimaGateAct
00401E2E   E9 8D880000      JMP GameServ.std::map<int,_MONSTER_HERD_>
00401E33   E9 B8101200      JMP GameServ.NpcCastleGuard
00401E38   E9 93440700      JMP GameServ.wsJoinServerCli::Connect
00401E3D   E9 7E150900      JMP GameServ.std::_Tree<std::basic_strin>
00401E42   E9 592C0700      JMP GameServ.CStreamPacketEngine_Server:>
00401E47   E9 E4720600      JMP GameServ.std::_Tree<int,std::pair<in>
00401E4C   E9 DF970800      JMP GameServ.VectorRotate
00401E51   E9 7A350C00      JMP GameServ.gObjFixInventoryPointer
00401E56   E9 C5BA0400      JMP GameServ.GDGuildNoticeSave
00401E5B   E9 90940000      JMP GameServ.std::_Tree<int,std::pair<in>
00401E60   E9 5BD00900      JMP GameServ.CObjUseSkill::SkillHellFire>
00401E65   E9 D6081100      JMP GameServ.CChaosCastle::GetCurEntered>
00401E6A   E9 B1290200      JMP GameServ.GS_DGAnsRegAttackGuild
00401E6F   E9 9C251200      JMP GameServ.CWzMemScript::`scalar delet>
00401E74   E9 D7060900      JMP GameServ.std::_Tree<int,std::pair<in>
00401E79   E9 A2171000      JMP GameServ.CBloodCastle::BloodCastleCh>
00401E7E   E9 DDEA0900      JMP GameServ.CObjUseSkill::SkillAddCriti>
00401E83   E9 A8891100      JMP GameServ.CWeapon::SetWeaponCalDamage>
00401E88   E9 53201000      JMP GameServ.CBloodCastle::CheckEnterIte>
00401E8D   E9 5E850900      JMP GameServ.CObjBaseAttack::ResistanceC>
00401E92   E9 D9E60100      JMP GameServ.GJSetCharacterInfo
00401E97   E9 C41B0100      JMP GameServ.gObjMonsterMoveAction
00401E9C   E9 EF481100      JMP GameServ.std::_Tree<int,std::pair<in>
00401EA1   E9 CAE20A00      JMP GameServ.std::_Tree<int,std::pair<in>
00401EA6   E9 75560800      JMP GameServ.std::_Tree<std::basic_strin>
00401EAB   E9 90C70600      JMP GameServ.CSkillDelay::Init
00401EB0   E9 EB070700      JMP GameServ.CWzMultiCastSock::GetEnumme>
00401EB5   E9 F6930000      JMP GameServ.std::_Tree<int,std::pair<in>
00401EBA   E9 21B00000      JMP GameServ.std::_Tree<int,std::pair<in>
00401EBF   E9 FCDB0800      JMP GameServ.CGuildClass::Print
00401EC4   E9 77440600      JMP GameServ.std::map<int,void *,std::le>
00401EC9   E9 422D0900      JMP GameServ.std::pair<std::_Tree<int,st>
00401ECE   E9 9DC80000      JMP GameServ.CKalimaGate::GetKalimaGateL>
00401ED3   E9 A8121000      JMP GameServ.CBloodCastle::SetState_Play>
00401ED8   E9 C3400900      JMP GameServ.std::_Tree<int,std::pair<in>
00401EDD   E9 7E8A0800      JMP GameServ.VectorLength
00401EE2   E9 49600800      JMP GameServ.std::basic_string<char,std:>
00401EE7   E9 14280200      JMP GameServ.GS_DGAnsCastleNpcRepair
00401EEC   E9 CF2E0100      JMP GameServ.gObjMonsterTrapAct
00401EF1   E9 7ACB0D00      JMP GameServ.gObjNProtectGGCheckSum
00401EF6   E9 357E0800      JMP GameServ.SQLSyntexCheck
00401EFB   E9 70E10500      JMP GameServ.std::vector<RINGMONSTER_EVE>
00401F00   E9 5B080200      JMP GameServ.DGMoveOtherServer
00401F05   E9 76E61100      JMP GameServ.std::_Tree<int,std::pair<in>
00401F0A   E9 C1D50C00      JMP GameServ.ViewportDel
00401F0F   E9 2C7F0B00      JMP GameServ.BILL_CLASS::GetPayCode
00401F14   E9 272C0800      JMP GameServ.std::basic_string<char,std:>
00401F19   E9 929A0600      JMP GameServ.CMagicDamage::Init
00401F1E   E9 ED7B0500      JMP GameServ.CBattleSoccer::`scalar dele>
00401F23   E9 98D10400      JMP GameServ.GDRelationShipReqBreakOff
00401F28   E9 034E0600      JMP GameServ.std::_Tree<int,std::pair<in>
00401F2D   E9 6EF30900      JMP GameServ.CObjUseSkill::SkillSummon
00401F32   E9 19460900      JMP GameServ.CViewportGuild::~CViewportG>
00401F37   E9 14B70A00      JMP GameServ.std::map<int,TUnionInfo *,s>
00401F3C   E9 AF8D0400      JMP GameServ.GCAnsCsMapSvrTaxInfo
00401F41   E9 6A0A0C00      JMP GameServ.gObjMonsterExpDivision
00401F46   E9 55280900      JMP GameServ.std::_Tree<int,std::pair<in>
00401F4B   E9 60B90800      JMP GameServ.CCallStackTrace::Output
00401F50   E9 7B620800      JMP GameServ.CIpCache::~CIpCache
00401F55   E9 86290900      JMP GameServ.std::_Tree<int,std::pair<in>
00401F5A   E9 51530500      JMP GameServ.CDevilSquareGround::`scalar>
00401F5F   E9 3CB40A00      JMP GameServ.TUnion::GetGuildUnionMember>
00401F64   E9 C77F0E00      JMP GameServ.CItem::AddPetItemExp
00401F69   E9 02F00A00      JMP GameServ.std::vector<int,std::alloca>
00401F6E   E9 EDE30A00      JMP GameServ.std::vector<int,std::alloca>
00401F73   E9 F84E0B00      JMP GameServ.gObjMagicTextSave
00401F78   E9 23210A00      JMP GameServ.CStatMng::`scalar deleting >
00401F7D   E9 AE650700      JMP GameServ.MapClass::`scalar deleting >
00401F82   E9 49FB0A00      JMP GameServ.MoveMonsterProc
00401F87   E9 A4831100      JMP GameServ.CMercenary::CreateMercenary
00401F8C   E9 DFA70000      JMP GameServ.std::_Tree<int,std::pair<in>
00401F91   E9 AA2A0700      JMP GameServ.CStreamPacketEngine_Server:>
00401F96   E9 85070700      JMP GameServ.CWzMultiCastSock::StartMult>
00401F9B   E9 F08D0E00      JMP GameServ.CItem::IsDinorantReduceAtta>
00401FA0   E9 FBA40C00      JMP GameServ.gObjTradeCancel
00401FA5   E9 76BC0500      JMP GameServ.CRingAttackEvent::CRingAtta>
00401FAA   E9 B13F0500      JMP GameServ.CDevilSquare::SendEventStar>
00401FAF   E9 5C8A0E00      JMP GameServ.CItem::IsExtDamageMinus
00401FB4   E9 47930A00      JMP GameServ.CDarkSpirit::Set
00401FB9   E9 52C70300      JMP GameServ.GCDamageSend
00401FBE   E9 0DAF0100      JMP GameServ.DBSockMng::`scalar deleting>
00401FC3   E9 F8F30A00      JMP GameServ.OBJECTSTRUCT::~OBJECTSTRUCT
00401FC8   E9 03770600      JMP GameServ.CItemBag::Init
00401FCD   E9 DE8B0100      JMP GameServ.CMonsterSetBase::~CMonsterS>
00401FD2   E9 E9CF0A00      JMP GameServ.std::_Tree<int,std::pair<in>
00401FD7   E9 64270200      JMP GameServ.GS_DGAnsTaxInfo
00401FDC   E9 AFDC0100      JMP GameServ.JGGetCharacterInfo
00401FE1   E9 4A4D1100      JMP GameServ.std::_Tree<int,std::pair<in>
00401FE6   E9 B5630700      JMP GameServ.MapClass::init
00401FEB   E9 E0A50D00      JMP GameServ.gObjCheckTeleportArea
00401FF0   E9 6BB30100      JMP GameServ.DBSockMng::Send
00401FF5   E9 E6D50A00      JMP GameServ.std::_Tree<int,std::pair<in>
00401FFA   E9 81340900      JMP GameServ.std::_Tree<int,std::pair<in>
00401FFF   E9 8C650800      JMP GameServ.CDirPath::~CDirPath
00402004   E9 A7B60600      JMP GameServ.CMagicDamage::SkillGetRequi>
00402009   E9 E2AD0000      JMP GameServ.std::_Tree<int,std::pair<in>
0040200E   E9 3D461100      JMP GameServ.std::vector<tagPOINT,std::a>
00402013   E9 58650000      JMP GameServ.MonsterHerd::`scalar deleti>
00402018   E9 C3740300      JMP GameServ.CGGuildListAll
0040201D   E9 7E770000      JMP GameServ.MonsterHerd::CheckLocation
00402022   E9 196B0000      JMP GameServ._MONSTER_HERD_DATA::_MONSTE>
00402027   E9 C4091200      JMP GameServ.NpcJewelMixDealer
0040202C   E9 4F420900      JMP GameServ.std::swap
00402031   E9 5A810300      JMP GameServ.GCGuildViewportNowPaint
00402036   E9 05B00000      JMP GameServ.std::allocator<_MONSTER_HER>
0040203B   E9 80360600      JMP GameServ.CEventManagement::Run
00402040   E9 6B9B1100      JMP GameServ.CCastleSiegeSync::CheckCast>
00402045   E9 16D60500      JMP GameServ.CRingAttackEvent::SetState_>
0040204A   E9 A1881000      JMP GameServ.CBloodCastle::CheckBossKill>
0040204F   E9 0CF20600      JMP GameServ.CQuestInfo::CompareConditio>
00402054   E9 77C70800      JMP GameServ.PartyClass::GetCount
00402059   E9 72F00600      JMP GameServ.CQuestInfo::QuestRunConditi>
0040205E   E9 FD470C00      JMP GameServ.gObjInventoryInsertItemTemp
00402063   E9 98C21100      JMP GameServ.std::vector<_MAPSVR_DATA *,>
00402068   E9 13FC0700      JMP GameServ.DarkSpiritChaosMix
0040206D   E9 6EF60500      JMP GameServ.EventChipOpenEven
00402072   E9 49100600      JMP GameServ.DarkLordHeartItemBoxOpen
00402077   E9 14C30400      JMP GameServ.GDGuildReqAssignType
0040207C   E9 7F440900      JMP GameServ.CViewportGuild::`scalar del>
00402081   E9 FA530800      JMP GameServ.std::_Tree<std::basic_strin>
00402086   E9 B5590700      JMP GameServ.WzUdp::Close
0040208B   E9 20CE0000      JMP GameServ.gObjMonsterMoveRegen
00402090   E9 EBA90B00      JMP GameServ.BackSpringCheck
00402095   E9 D6A30800      JMP GameServ.CWZScriptEncode::SetScriptP>
0040209A   E9 51630C00      JMP GameServ.gObjWarehouseInsertItemPos
0040209F   E9 4CE30A00      JMP GameServ.std::pair<std::_Tree<int,st>
004020A4   E9 87DF0400      JMP GameServ.FriendListResult
004020A9   E9 E2BF1100      JMP GameServ.std::_Tree<int,std::pair<in>
004020AE   E9 7D670600      JMP GameServ.std::_Tree<int,std::pair<in>
004020B3   E9 68AE0500      JMP GameServ.CEledoradoEvent::RegenKantu>
004020B8   E9 53BB0F00      JMP GameServ.AllServerStart
004020BD   E9 CE2C0C00      JMP GameServ.CMagicInf::operator=
004020C2   E9 09EC0A00      JMP GameServ.TUnionInfo::GetRivalMemberC>
004020C7   E9 04B40100      JMP GameServ.DataServerProtocolCore
004020CC   E9 0F5D0600      JMP GameServ.std::_Tree<int,std::pair<in>
004020D1   E9 DAE20400      JMP GameServ.char_ID::GetLength
004020D6   E9 053F1000      JMP GameServ.CBloodCastle::AddExperience
004020DB   E9 80CB0600      JMP GameServ.CQuestInfo::CQuestInfo
004020E0   E9 3B930600      JMP GameServ.CItemBagEx::GetBagCount
004020E5   E9 964F1100      JMP GameServ.std::vector<tagPOINT,std::a>
004020EA   E9 B1471000      JMP GameServ.CBloodCastle::BlockSector
004020EF   E9 BC1E0900      JMP GameServ.std::_Tree<int,std::pair<in>
004020F4   E9 B7780500      JMP GameServ.CBattleGround::SetScore
004020F9   E9 C22C0B00      JMP GameServ.gObjSetCharacter
004020FE   E9 3D3B0900      JMP GameServ.std::_Tree<int,std::pair<in>
00402103   E9 F88A0800      JMP GameServ._VectorSubtract
00402108   E9 A3690500      JMP GameServ.std::vector<OBJECTSTRUCT *,>
0040210D   E9 7E5C0500      JMP GameServ.CDevilSquareGround::ClearSc>
00402112   E9 59960400      JMP GameServ.ExDataServerProtocolCore
00402117   E9 B44D0600      JMP GameServ.std::_Tree<int,std::pair<in>
0040211C   E9 8F7B1100      JMP GameServ.std::_Allocate
00402121   E9 2A351000      JMP GameServ.CBloodCastle::EnterUserBrid>
00402126   E9 B5E20400      JMP GameServ.FriendStateClientRecv
0040212B   E9 A0130D00      JMP GameServ.gObjCurMoveMake
00402130   E9 4BBE0A00      JMP GameServ.std::_Tree<int,std::pair<in>
00402135   E9 26190F00      JMP GameServ.CMoveCommand::GetMoveLevel
0040213A   E9 A1240200      JMP GameServ.GS_GDReqCalcRegGuildList
0040213F   E9 FC630800      JMP GameServ.CDirPath::`scalar deleting >
00402144   E9 A7390600      JMP GameServ.CEventManagement::Load
00402149   E9 E2F50100      JMP GameServ.GDGameServerInfoSave
0040214E   E9 9D090600      JMP GameServ.RingEventItemBoxOpen
00402153   E9 08880000      JMP GameServ.std::_Tree<int,std::pair<in>
00402158   E9 53510600      JMP GameServ.std::_Tree<int,std::pair<in>
0040215D   E9 FE930900      JMP GameServ.CObjUseSkill::EnableSkill
00402162   E9 19D50200      JMP GameServ.CGInventoryItemMove
00402167   E9 A4BB0A00      JMP GameServ.std::_Tree<int,std::pair<in>
0040216C   E9 EF6D0500      JMP GameServ.std::copy
00402171   E9 CA9A1100      JMP GameServ.CCastleSiegeSync::CheckCast>
00402176   E9 45220F00      JMP GameServ.CMoveCommand::MoveFree2Kali>
0040217B   E9 40030900      JMP GameServ.std::_Tree<int,std::pair<in>
00402180   E9 1BCE0D00      JMP GameServ.gObjCheckMaxZen
00402185   E9 166A0000      JMP GameServ.MonsterHerd::SetRadius
0040218A   E9 61C20600      JMP GameServ.CMagicInf::Set
0040218F   E9 4CC70C00      JMP GameServ.CreateFrustrum
00402194   E9 F7AB0800      JMP GameServ.TNotice::MakeNoticeMsg
00402199   E9 22DF1100      JMP GameServ.std::_Tree<int,std::pair<in>
0040219E   E9 CD1E1000      JMP GameServ.CBloodCastle::CheckQuestIte>
004021A3   E9 D8390900      JMP GameServ.std::_Tree<int,std::pair<in>
004021A8   E9 33FE0600      JMP GameServ.CwsGameServer::SetSocketInd>
004021AD   E9 BEA50D00      JMP GameServ.gObjCheckAttackAreaUsedPath
004021B2   E9 B91C1200      JMP GameServ.CMultiCheckSum::CMultiCheck>
004021B7   E9 B4F10D00      JMP GameServ.gObjWeaponDurDownInCastle
004021BC   E9 BFF00F00      JMP GameServ.CBloodCastle::LoadItemDropR>
004021C1   E9 7AB00100      JMP GameServ.DBSockMng::ActiveChange
004021C6   E9 75971100      JMP GameServ.CCastleSiegeSync::GetTaxRat>
004021CB   E9 D0421100      JMP GameServ.std::vector<CHAOSCASTLE_STA>
004021D0   E9 AB800A00      JMP GameServ.CDarkSpirit::~CDarkSpirit
004021D5   E9 464D0500      JMP GameServ.CDevilSquare::gObjScoreClea>
004021DA   E9 C1850800      JMP GameServ.CWhisperCash::SearchCash
004021DF   E9 4CEA1100      JMP GameServ.std::_Tree<int,std::pair<in>
004021E4   E9 57520F00      JMP GameServ.ReadCommonServerInfo
004021E9   E9 82880000      JMP GameServ.std::_Tree<int,std::pair<in>
004021EE   E9 1D6C1100      JMP GameServ.std::_Tree<int,std::pair<in>
004021F3   E9 F84B0800      JMP GameServ.std::_Tree<std::basic_strin>
004021F8   E9 C3240200      JMP GameServ.GS_DGAnsOwnerGuildMaster
004021FD   E9 EE1A0200      JMP GameServ.GS_GDReqCastleOwnerChange
00402202   E9 A9BD1100      JMP GameServ.std::map<int,_MAPSVR_DATA *>
00402207   E9 C41C0900      JMP GameServ.std::_Tree<std::basic_strin>
0040220C   E9 7F450800      JMP GameServ.std::_Tree<std::basic_strin>
00402211   E9 6A380500      JMP GameServ.CDevilSquare::SetMonster
00402216   E9 C5860400      JMP GameServ.GCAnsCastleSiegeState
0040221B   E9 404A0D00      JMP GameServ.gObjMoveGate
00402220   E9 CBEE0A00      JMP GameServ.std::find
00402225   E9 D64A0500      JMP GameServ.CDevilSquare::CalcScore
0040222A   E9 51D50000      JMP GameServ.gObjMonsterSetHitDamage
0040222F   E9 6C260800      JMP GameServ.std::map<std::basic_string<>
00402234   E9 E7520500      JMP GameServ.CDevilSquareGround::Init
00402239   E9 928A1100      JMP GameServ.CWeapon::Attack
0040223E   E9 CDCF0E00      JMP GameServ.CShop::Init
00402243   E9 A8BC0F00      JMP GameServ.MyRegisterClass
00402248   E9 03460900      JMP GameServ.CObjAttack::Attack
0040224D   E9 AE1A0900      JMP GameServ.std::_Tree<std::basic_strin>
00402252   E9 B9F00400      JMP GameServ.MngFriendMemoSend
00402257   E9 14CA0E00      JMP GameServ.GetLevelItem
0040225C   E9 3F8C0900      JMP GameServ.CObjUseSkill::CObjUseSkill
00402261   E9 8ADC0800      JMP GameServ.CGuildClass::SearchGuild_Nu>
00402266   E9 05C01100      JMP GameServ.std::pair<int,_MAPSVR_DATA >
0040226B   E9 40D90500      JMP GameServ.std::vector<RINGMONSTER_DAT>
00402270   E9 4B3B0300      JMP GameServ.CGPShopAnsBuyList
00402275   E9 16030900      JMP GameServ.std::_Tree<int,std::pair<in>
0040227A   E9 21D00300      JMP GameServ.GCMagicCancelSend
0040227F   E9 BCD90600      JMP GameServ.CQuestInfo::LoadQuestInfo
00402284   E9 F79B0100      JMP GameServ.CMonsterSetBase::LoadSetBas>
00402289   E9 521C0F00      JMP GameServ.CMoveCommand::FindIndex
0040228E   E9 1DD20900      JMP GameServ.CObjUseSkill::SkillFrustrum>
00402293   E9 68B60A00      JMP GameServ.std::vector<int,std::alloca>
00402298   E9 F3760800      JMP GameServ.CMoveCheck::`scalar deletin>
0040229D   E9 6E270700      JMP GameServ.CStreamPacketEngine_Server:>
004022A2   E9 09810200      JMP GameServ.CSPJoinIdPassRequest
004022A7   E9 94BD0A00      JMP GameServ.std::_Tree<int,std::pair<in>
004022AC   E9 7F060200      JMP GameServ.gObjRequestPetItemInfo
004022B1   E9 8A890400      JMP GameServ.GCAnsCsNotifyStart
004022B6   E9 25710B00      JMP GameServ.gObjUserKill
004022BB   E9 A06A0200      JMP GameServ.vChatSend
004022C0   E9 5BCA1100      JMP GameServ.std::_Tree<int,std::pair<in>
004022C5   E9 46C60D00      JMP GameServ.gObjCheckAllUserDuelStop
004022CA   E9 C17F0700      JMP GameServ.MapClass::SearchStandAttr
004022CF   E9 9CB80600      JMP GameServ.CMagicDamage::CheckStatus
004022D4   E9 77310800      JMP GameServ.std::_Tree<std::basic_strin>
004022D9   E9 72C00800      JMP GameServ.std::basic_string<char,std:>
004022DE   E9 7D3D0700      JMP GameServ.MyWinsockBase::Close2
004022E3   E9 B8080700      JMP GameServ.CWzMultiCastSock::SaveLastE>
004022E8   E9 D3B70B00      JMP GameServ.gObjGiveItemSearch
004022ED   E9 5E270500      JMP GameServ.CDevilSquare::Run
004022F2   E9 E94A0B00      JMP GameServ.CDragonEvent::GetMapNumber
004022F7   E9 146B0800      JMP GameServ.LogAddLocalFunc
004022FC   E9 3FB40700      JMP GameServ.LogDQChaosItem
00402301   E9 3AD30800      JMP GameServ.CGuildClass::`scalar deleti>
00402306   E9 C5490C00      JMP GameServ.gObjInventoryInsertItem
0040230B   E9 903D1100      JMP GameServ.std::map<int,_MONSTER_ITEM_>
00402310   E9 1BD30A00      JMP GameServ.std::_Tree<int,std::pair<in>
00402315   E9 06FE0900      JMP GameServ.CObjUseSkill::SkillMagumOne>
0040231A   E9 81EC1100      JMP GameServ.std::swap
0040231F   E9 DCB00D00      JMP GameServ.gObjGetItemCountInIventory
00402324   E9 87070700      JMP GameServ.CWzMultiCastSock::SendData
00402329   E9 92AD0800      JMP GameServ.TNotice::SendNoticeToAllUse>
0040232E   E9 2D1C0A00      JMP GameServ.classdef::SetMabubBanjiOpti>
00402333   E9 C8960600      JMP GameServ.CMagicDamage::LogSkillList
00402338   E9 43520C00      JMP GameServ.gObjIsItemPut
0040233D   E9 3E8E0500      JMP GameServ.CAttackEvent::CAttackEvent
00402342   E9 692C0100      JMP GameServ.InventoryDropItem
00402347   E9 34321100      JMP GameServ.CChaosCastle::CheckWearingM>
0040234C   E9 FFDB0900      JMP GameServ.CObjUseSkill::SkillDarkHors>
00402351   E9 EA660500      JMP GameServ.std::vector<OBJECTSTRUCT *,>
00402356   E9 85870400      JMP GameServ.GCAnsTaxMoneyInfo
0040235B   E9 70BD0A00      JMP GameServ.std::_Tree<int,std::pair<in>
00402360   E9 7BC90600      JMP GameServ.CQuestInfo::`scalar deletin>
00402365   E9 A6A40A00      JMP GameServ.CDarkSpirit::GetAttackDamag>
0040236A   E9 D1DE0900      JMP GameServ.CObjUseSkill::RecallPartyCh>
0040236F   E9 9C610800      JMP GameServ.CDirPath::CDirPath
00402374   E9 37BB0300      JMP GameServ.RecvPositionSetProc
00402379   E9 C2960B00      JMP GameServ.gObjCheckTileArea
0040237E   E9 9D0C1200      JMP GameServ.NpcShadowPhantom
00402383   E9 C84D0F00      JMP GameServ.GMEventChipClientMsgProc
00402388   E9 83C20900      JMP GameServ.CObjUseSkill::SkillDeathPoi>
0040238D   E9 3E220900      JMP GameServ.std::_Tree<int,std::pair<in>
00402392   E9 A9AD0000      JMP GameServ.std::_Construct
00402397   E9 54080500      JMP GameServ.CPacketCheckSum::CPacketChe>
0040239C   E9 3F221000      JMP GameServ.CBloodCastle::CheckPlayStar>
004023A1   E9 4AA40000      JMP GameServ.std::_Tree<int,std::pair<in>
004023A6   E9 A5880B00      JMP GameServ.gObjJoominCheck
004023AB   E9 90350E00      JMP GameServ.CItem::IsItem
004023B0   E9 4B550700      JMP GameServ.WzUdp::WzUdp
004023B5   E9 F64A0800      JMP GameServ.std::_Tree<std::basic_strin>
004023BA   E9 414D1100      JMP GameServ.std::vector<tagPOINT,std::a>
004023BF   E9 4C270900      JMP GameServ.std::_Tree<int,std::pair<in>
004023C4   E9 874A0600      JMP GameServ.std::_Tree<int,std::pair<in>
004023C9   E9 E2BB0A00      JMP GameServ.std::vector<int,std::alloca>
004023CE   E9 3D4F0700      JMP GameServ.WZQueue::DeleteAllNodes
004023D3   E9 68E00500      JMP GameServ.std::allocator<RINGMONSTER_>
004023D8   E9 03490F00      JMP GameServ.GMRankingServerConnect
004023DD   E9 BE5B0C00      JMP GameServ.gObjChaosItemBoxSet
004023E2   E9 F9340600      JMP GameServ.CEventManagement::StartEven>
004023E7   E9 147F1100      JMP GameServ.CMercenary::~CMercenary
004023EC   E9 AF6B0000      JMP GameServ.MonsterHerd::BeenAttacked
004023F1   E9 5AA30000      JMP GameServ.std::_Tree<int,std::pair<in>
004023F6   E9 D5F00800      JMP GameServ.std::_Tree<int,std::pair<in>
004023FB   E9 601F0A00      JMP GameServ.CComboAttack::`scalar delet>
00402400   E9 FB680700      JMP GameServ.MapClass::GetWeather
00402405   E9 669B1100      JMP GameServ._MAPSVR_DATA::`scalar delet>
0040240A   E9 A1FE0700      JMP GameServ.BlessPotionChaosMix
0040240F   E9 5CCC0800      JMP GameServ.PartyClass::Paint
00402414   E9 B7EB0400      JMP GameServ.FriendMemoSend
00402419   E9 72280100      JMP GameServ.gObjTrapAttackEnemySearch
0040241E   E9 1DEC0A00      JMP GameServ.std::vector<int,std::alloca>
00402423   E9 88A00800      JMP GameServ.CWZScriptEncode::GetNumber
00402428   E9 13CD0E00      JMP GameServ.CShop::CShop
0040242D   E9 1E140400      JMP GameServ.GCReqDevilSquareRemainTime
00402432   E9 39F00800      JMP GameServ.std::_Tree<int,std::pair<in>
00402437   E9 14D80500      JMP GameServ.std::vector<RINGMONSTER_DAT>
0040243C   E9 6F801100      JMP GameServ.CMercenary::MercenaryAct
00402441   E9 1A201200      JMP GameServ.CWzMemScript::~CWzMemScript
00402446   E9 05990000      JMP GameServ.std::_Tree<int,std::pair<in>
0040244B   E9 00130A00      JMP GameServ.classdef::`scalar deleting >
00402450   E9 CB8C0000      JMP GameServ.std::_Tree<int,std::pair<in>
00402455   E9 566A0600      JMP GameServ.std::_Tree<int,std::pair<in>
0040245A   E9 714A0500      JMP GameServ.CDevilSquare::SendLiveCall
0040245F   E9 6C960200      JMP GameServ.GCMagicListOneSend
00402464   E9 B78A0900      JMP GameServ.CObjUseSkill::~CObjUseSkill
00402469   E9 22160700      JMP GameServ.ServerWorkerThread
0040246E   E9 CD7A1000      JMP GameServ.CBloodCastle::CalcSendRewar>
00402473   E9 88800A00      JMP GameServ.CDarkSpirit::ModeAttackRand>
00402478   E9 83660800      JMP GameServ.LogTextAdd
0040247D   E9 0E350800      JMP GameServ.std::allocator<char>::deall>
00402482   E9 19181100      JMP GameServ.CChaosCastle::SendCastleZon>
00402487   E9 74050500      JMP GameServ.NSerialCheck::init
0040248C   E9 7FA30400      JMP GameServ.GDGuildMemberAddResult
00402491   E9 2A8D0000      JMP GameServ.std::less<int>::operator()
00402496   E9 E5491100      JMP GameServ.std::vector<CHAOSCASTLE_STA>
0040249B   E9 E05C0800      JMP GameServ.CIpCache::`scalar deleting >
004024A0   E9 CBA20400      JMP GameServ.GDGuildMemberAdd
004024A5   E9 26A30300      JMP GameServ.GCWarehouseRecivePassword
004024AA   E9 41360200      JMP GameServ.JGPEventControl
004024AF   E9 CC810000      JMP GameServ.std::map<int,_MONSTER_HERD_>
004024B4   E9 47FA0500      JMP GameServ.SilverMedalOpenEven
004024B9   E9 22990E00      JMP GameServ.ItemByteConvert10
004024BE   E9 2D001100      JMP GameServ.CChaosCastle::CheckPlayEnde>
004024C3   E9 28E90500      JMP GameServ.EventChipEventProtocolCore
004024C8   E9 F39B1100      JMP GameServ.CMapServerManager::CMapServ>
004024CD   E9 3E8A0800      JMP GameServ.AddPointToBounds
004024D2   E9 098C1000      JMP GameServ.CBloodCastle::GetCurrentLiv>
004024D7   E9 84120800      JMP GameServ.CLoginCount::Delete
004024DC   E9 0FFA0600      JMP GameServ.CwsGameServer::CwsGameServe>
004024E1   E9 3A7D0800      JMP GameServ.GetTodayString
004024E6   E9 25961100      JMP GameServ.CCastleSiegeSync::AdjustTri>
004024EB   E9 50FC1100      JMP GameServ.NpcAngelKing
004024F0   E9 AB420900      JMP GameServ.CObjAttack::CObjAttack
004024F5   E9 064B0B00      JMP GameServ.gObjStatTextSave
004024FA   E9 318A0D00      JMP GameServ.gObjGuildWarEndSend
004024FF   E9 9C860400      JMP GameServ.CGReqCsGateOperate
00402504   E9 57C80700      JMP GameServ.PegasiaChaosMix
00402509   E9 62270900      JMP GameServ.std::_Tree<std::basic_strin>
0040250E   E9 7DFC0600      JMP GameServ.CwsGameServer::AcceptSocket
00402513   E9 B8840800      JMP GameServ.sqrtf
00402518   E9 43220500      JMP GameServ.CDevilSquare::SetPlaying
0040251D   E9 DEA10E00      JMP GameServ.ItemGetDurability
00402522   E9 39B80800      JMP GameServ.CCallStackTrace::SaveCallSt>
00402527   E9 F4210200      JMP GameServ.GS_DGAnsCastleNpcUpgrade
0040252C   E9 CF2A0C00      JMP GameServ.gObjInventoryRollback
00402531   E9 CAE20500      JMP GameServ.std::allocator<RINGMONSTER_>
00402536   E9 F53C0600      JMP GameServ.std::vector<EVENT_ID_TIME,s>
0040253B   E9 70CA0E00      JMP GameServ.IsItem
00402540   E9 1B270200      JMP GameServ.CCastleSiegeSync::GetTribut>
00402545   E9 B6051200      JMP GameServ.NpcSiegeMachine_Attack
0040254A   E9 71DE0A00      JMP GameServ.std::allocator<int>::alloca>
0040254F   E9 5C3A0700      JMP GameServ.MyWinsockBase::Close
00402554   E9 278C0000      JMP GameServ.std::pair<std::_Tree<int,st>
00402559   E9 D2D60500      JMP GameServ.std::vector<RINGMONSTER_DAT>
0040255E   E9 BD600600      JMP GameServ.std::_Tree<int,std::pair<in>
00402563   E9 08C50500      JMP GameServ.CRingAttackEvent::Run
00402568   E9 A3450200      JMP GameServ.GJNotifyMaxUserCount
0040256D   E9 5EB50400      JMP GameServ.DGGuildListRequest
00402572   E9 F9910C00      JMP GameServ.gObjTradeInventoryMove
00402577   E9 B41D0A00      JMP GameServ.CComboAttack::CComboAttack
0040257C   E9 4F170400      JMP GameServ.GCPingSendRecv
00402581   E9 7A700600      JMP GameServ.CItemBagAttr::CItemBagAttr
00402586   E9 F57A0100      JMP GameServ.CMonsterItemMng::Init
0040258B   E9 B0090800      JMP GameServ.CAcceptIp::CAcceptIp
00402590   E9 5B860E00      JMP GameServ.CItem::IsExtAttackSpeed
00402595   E9 B6F70F00      JMP GameServ.CBloodCastle::SetState
0040259A   E9 C1860800      JMP GameServ._VectorAdd
0040259F   E9 8C7D0A00      JMP GameServ.CDarkSpirit::Run
004025A4   E9 47BC0800      JMP GameServ.CCallStackTrace::GetModuleB>
004025A9   E9 D2A60C00      JMP GameServ.TradeitemInventoryPut
004025AE   E9 8D3C0900      JMP GameServ.std::swap
004025B3   E9 48810000      JMP GameServ.std::map<int,_MONSTER_HERD_>
004025B8   E9 437A0900      JMP GameServ.CObjBaseAttack::PkCheck
004025BD   E9 8EFE0600      JMP GameServ.CWzMultiCastSock::CWzMultiC>
004025C2   E9 094D0300      JMP GameServ.CGPShopReqCloseDeal
004025C7   E9 940E1200      JMP GameServ.CGameServerAuth::Init
004025CC   E9 FF791100      JMP GameServ.CGuardian::CGuardian
004025D1   E9 FA080500      JMP GameServ.CPacketCheckSum::ClearCheck>
004025D6   E9 85BE0B00      JMP GameServ.gObjGuildMasterCapacityTest
004025DB   E9 908C0000      JMP GameServ.std::_Tree<int,std::pair<in>
004025E0   E9 DBFD0400      JMP GameServ.CMultiAttackHackCheck::Init
004025E5   E9 86340200      JMP GameServ.JGPEventStart
004025EA   E9 E1D80500      JMP GameServ.std::vector<RINGMONSTER_EVE>
004025EF   E9 2C7F0800      JMP GameServ.CWhisperCash::~CWhisperCash
004025F4   E9 A7AB0000      JMP GameServ.operator new
004025F9   E9 B20C1200      JMP GameServ.GameServerAuthCallBackFunc
004025FE   E9 3D2E0F00      JMP GameServ.gJoominCheck
00402603   E9 E86C1100      JMP GameServ.std::_Tree<int,std::pair<in>
00402608   E9 83E20500      JMP GameServ.std::vector<RINGMONSTER_EVE>
0040260D   E9 CE9F0000      JMP GameServ.std::_Tree<int,std::pair<in>
00402612   E9 09201200      JMP GameServ.CWzMemScript::GetToken
00402617   E9 54E80A00      JMP GameServ.TUnionInfo::SetUnionMaster
0040261C   E9 0FD90B00      JMP GameServ.gObjInterfaceTimeCheck
00402621   E9 EA270800      JMP GameServ.std::basic_string<char,std:>
00402626   E9 F54F0700      JMP GameServ.WZQueue::SetCurDataSending
0040262B   E9 E06C0600      JMP GameServ.std::fill
00402630   E9 8BA60300      JMP GameServ.CGChaosBoxItemMixButtonClic>
00402635   E9 26FA1100      JMP GameServ.NpcServerDivision
0040263A   E9 910F1200      JMP GameServ.CGameServerAuth::SendInfo
0040263F   E9 2C850000      JMP GameServ.std::_Tree<int,std::pair<in>
00402644   E9 97F80D00      JMP GameServ.CJewelMixSystem::`scalar de>
00402649   E9 F21F1000      JMP GameServ.CBloodCastle::GetRemainTime
0040264E   E9 FDF70F00      JMP GameServ.CBloodCastle::Run
00402653   E9 F8830E00      JMP GameServ.CItem::IsExtDamageReflect
00402658   E9 739B0B00      JMP GameServ.gObjMsgProc
0040265D   E9 1E010100      JMP GameServ.gObjMonsterBeattackRecv
00402662   E9 19330D00      JMP GameServ.gObjSkillUseProc
00402667   E9 64BD0D00      JMP GameServ.gObjCalcMaxLifePower
0040266C   E9 0F450200      JMP GameServ.JGPSendMail
00402671   E9 6A270200      JMP GameServ.GS_DGAnsCastleNpcUpdate
00402676   E9 B5A50100      JMP GameServ.CDbSave::ThreadProc
0040267B   E9 60040A00      JMP GameServ.CObjUseSkill::SkillRemoveSt>
00402680   E9 7B820500      JMP GameServ.CDragonEvent::CDragonEvent
00402685   E9 E6E40D00      JMP GameServ.gObjNotifyUseWeaponV1
0040268A   E9 81D30500      JMP GameServ.CRingAttackEvent::Start_Men>
0040268F   E9 4C630500      JMP GameServ.std::vector<OBJECTSTRUCT *,>
00402694   E9 77CB0A00      JMP GameServ.std::_Tree<int,std::pair<in>
00402699   E9 926D0600      JMP GameServ.std::_Allocate
0040269E   E9 4DDC0E00      JMP GameServ.CGMMng::`scalar deleting de>
004026A3   E9 98D40100      JMP GameServ.JGCharacterCreateFailSend
004026A8   E9 A31C1200      JMP GameServ.TSync::Unlock
004026AD   E9 1E021100      JMP GameServ.CChaosCastle::GetRemainTime
004026B2   E9 297C0200      JMP GameServ.SCPJoinResultSend
004026B7   E9 248C0500      JMP GameServ.CAttackEvent::Active
004026BC   E9 DFB30A00      JMP GameServ.std::_Tree<int,std::pair<in>
004026C1   E9 EADF0200      JMP GameServ.CGTalkRequestRecv
004026C6   E9 B5A40000      JMP GameServ.std::_Tree<int,std::pair<in>
004026CB   E9 00121200      JMP GameServ.GetLargeRand
004026D0   E9 BB0E0500      JMP GameServ.CSendHackLog::~CSendHackLog
004026D5   E9 16B81100      JMP GameServ.std::map<int,_MAPSVR_DATA *>
004026DA   E9 816B0500      JMP GameServ.std::_Sort
004026DF   E9 1CF30400      JMP GameServ.FriendMemoReadReq
004026E4   E9 57F90400      JMP GameServ.FriendRoomInvitationRecv
004026E9   E9 D2790500      JMP GameServ.gBattleGroundEnable
004026EE   E9 3DBE1100      JMP GameServ.std::_Tree<int,std::pair<in>
004026F3   E9 E80C0900      JMP GameServ.std::_Tree<std::basic_strin>
004026F8   E9 43700500      JMP GameServ.CBattleGround::~CBattleGrou>
004026FD   E9 EE540B00      JMP GameServ.gObjSetMonster
00402702   E9 49730900      JMP GameServ.gObjDarkHorse
00402707   E9 44B70A00      JMP GameServ.std::_Tree<int,std::pair<in>
0040270C   E9 2F640600      JMP GameServ.std::_Tree<int,std::pair<in>
00402711   E9 6ACE0A00      JMP GameServ.std::map<int,TUnionInfo *,s>
00402716   E9 454D0400      JMP GameServ.CGDuelOkRequestRecv
0040271B   E9 F0651100      JMP GameServ.std::_Tree<int,std::pair<in>
00402720   E9 FB900B00      JMP GameServ.GetPathPacketDirPos
00402725   E9 A63D1100      JMP GameServ.std::vector<CHAOSCASTLE_STA>
0040272A   E9 81AF0800      JMP GameServ.CCallStackTrace::CCallStack>
0040272F   E9 BC260800      JMP GameServ.std::basic_string<char,std:>
00402734   E9 A71F0500      JMP GameServ.CDevilSquare::SetOpen
00402739   E9 627B0800      JMP GameServ.PHeadSetB
0040273E   E9 5D920D00      JMP GameServ.gObjGuildWarMasterClose
00402743   E9 78731100      JMP GameServ.std::copy_backward
00402748   E9 83DA0A00      JMP GameServ.std::_Tree<int,std::pair<in>
0040274D   E9 5E400600      JMP GameServ.std::allocator<EVENT_ID_TIM>
00402752   E9 192B0200      JMP GameServ.JGPAccountRequest
00402757   E9 14A10100      JMP GameServ.CDbSave::`scalar deleting d>
0040275C   E9 4F7A0A00      JMP GameServ.CDarkSpirit::CDarkSpirit
00402761   E9 7A910800      JMP GameServ.AngleQuaternion
00402766   E9 F5980C00      JMP GameServ.gObjTradeTradeMove
0040276B   E9 E0370700      JMP GameServ.MyWinsockBase::CreateSocket
00402770   E9 9BFC0900      JMP GameServ.CObjUseSkill::SkillBrandOfS>
00402775   E9 96650300      JMP GameServ.CGGuildRequestRecv
0040277A   E9 91A20400      JMP GameServ.GDGuildMemberDel
0040277F   E9 0C3C0900      JMP GameServ.std::_Construct
00402784   E9 B7AB0800      JMP GameServ.TNotice::SendToAllUser
00402789   E9 B2200200      JMP GameServ.GS_DGAnsRestartCastleState
0040278E   E9 8D400900      JMP GameServ.CObjAttack::~CObjAttack
00402793   E9 58350200      JMP GameServ.LoveHeartEventRecv
00402798   E9 430A0E00      JMP GameServ.CSetItemOption::CSetItemOpt>
0040279D   E9 2EC00D00      JMP GameServ.gObjSendDuelEnd
004027A2   E9 191B0B00      JMP GameServ.DbItemSetInByte
004027A7   E9 C4FE0500      JMP GameServ.FireCrackerOpenEven
004027AC   E9 2FB10A00      JMP GameServ.std::vector<int,std::alloca>
004027B1   E9 EAE30600      JMP GameServ.CQuestInfo::SetQuestState
004027B6   E9 25190200      JMP GameServ.GS_GDReqGuildSetGiveUp
004027BB   E9 D03C0700      JMP GameServ.wsJoinServerCli::DataSend
004027C0   E9 DB6F0D00      JMP GameServ.gObjMagicEnergyCheck
004027C5   E9 06FF0400      JMP GameServ.CMultiAttackHackCheck::Chec>
004027CA   E9 D19A1100      JMP GameServ.std::map<int,_MAPSVR_DATA *>
004027CF   E9 5C811100      JMP GameServ.CWeapon::GetWeaponCalDamage>
004027D4   E9 177B0500      JMP GameServ.GetBattleTeamName
004027D9   E9 02370400      JMP GameServ.CGRequestRepositionUserInCh>
004027DE   E9 ED640000      JMP GameServ.MonsterHerd::Start
004027E3   E9 C8C90A00      JMP GameServ.std::_Tree<int,std::pair<in>
004027E8   E9 F3080A00      JMP GameServ.CObjUseSkill::SkillCloaking
004027ED   E9 1E730500      JMP GameServ.CBattleSoccer::`scalar dele>
004027F2   E9 A91F0400      JMP GameServ.GCSendQuestInfo
004027F7   E9 14440F00      JMP GameServ.GameMainFree
004027FC   E9 FF5F0600      JMP GameServ.std::allocator<EVENT_ID_TIM>
00402801   E9 2A0E0200      JMP GameServ.GS_GDReqOwnerGuildMaster
00402806   E9 45780100      JMP GameServ.CMonsterItemMng::~CMonsterI>
0040280B   E9 B0111200      JMP GameServ.CLargeRand::CLargeRand
00402810   E9 CBC80A00      JMP GameServ.std::_Tree<int,std::pair<in>
00402815   E9 56610600      JMP GameServ.std::_Tree<int,std::pair<in>
0040281A   E9 91F50B00      JMP GameServ.gObjWeaponDurDown
0040281F   E9 4CE60300      JMP GameServ.TDurMagicKeyChecker::SetDur>
00402824   E9 27660600      JMP GameServ.std::_Tree<int,std::pair<in>
00402829   E9 A2A40F00      JMP GameServ.ReadGameEtcInfo
0040282E   E9 1D751100      JMP GameServ.std::_Construct
00402833   E9 68C31100      JMP GameServ.std::pair<std::_Tree<int,st>
00402838   E9 13F60A00      JMP GameServ.gObjInit
0040283D   E9 6E310E00      JMP GameServ.CItem::Convert
00402842   E9 695D0A00      JMP GameServ.gObjCalcSetItemOption
00402847   E9 146B0E00      JMP GameServ.CItem::OldValue
0040284C   E9 1F040500      JMP GameServ.CPacketCheckSum::~CPacketCh>
00402851   E9 AA240200      JMP GameServ.GS_DGAnsCastleNpcInfo
00402856   E9 055A0800      JMP GameServ.CIpCache::AddIp
0040285B   E9 10C00B00      JMP GameServ.gObjPlayerKiller
00402860   E9 6B950300      JMP GameServ.GCGuildWarDeclare
00402865   E9 46C70000      JMP GameServ.gObjMonsterRegen
0040286A   E9 A1DE0500      JMP GameServ.std::allocator<RINGMONSTER_>
0040286F   E9 5C9F0000      JMP GameServ.std::_Tree<int,std::pair<in>
00402874   E9 27820400      JMP GameServ.GCAnsNpcUpgrade
00402879   E9 D2C50800      JMP GameServ.PartyClass::Delete
0040287E   E9 2D510700      JMP GameServ.WzUdp::Init
00402883   E9 28470F00      JMP GameServ.GMClientMsgProc
00402888   E9 C3160800      JMP GameServ.CConMember::CConMember
0040288D   E9 2E720500      JMP GameServ.CBattleSoccer::CBattleSocce>
00402892   E9 79310800      JMP GameServ.std::allocator<int>::deallo>
00402897   E9 E43C1100      JMP GameServ.std::vector<tagPOINT,std::a>
0040289C   E9 2FB60600      JMP GameServ.CMagicInf::`scalar deleting>
004028A1   E9 2A9A1100      JMP GameServ.CMapServerManager::Clear
004028A6   E9 E5FE0D00      JMP GameServ.CJewelMixSystem::UnMixJewel
004028AB   E9 70A60100      JMP GameServ.DBSockMng::~DBSockMng
004028B0   E9 2BF61100      JMP GameServ.NpcWarehouse
004028B5   E9 467E1100      JMP GameServ.ST_WEAPON_DAMAGED_TARGET_IN>
004028BA   E9 117C0800      JMP GameServ.CWhisperCash::`scalar delet>
004028BF   E9 7CD50500      JMP GameServ.std::vector<RINGMONSTER_EVE>
004028C4   E9 17E71100      JMP GameServ.std::fill
004028C9   E9 C28C0B00      JMP GameServ.gObjGetNumber
004028CE   E9 7DED0500      JMP GameServ.CItemBag::GetBagCount
004028D3   E9 38A70300      JMP GameServ.CGChaosBoxUseEnd
004028D8   E9 53BB1100      JMP GameServ.std::vector<_MAPSVR_DATA *,>
004028DD   E9 DE5C0800      JMP GameServ.CDirPath::SetFirstPath
004028E2   E9 B9450600      JMP GameServ.std::_Tree<int,std::pair<in>
004028E7   E9 14740500      JMP GameServ.CBattleSoccerManager::`scal>
004028EC   E9 BFFE1100      JMP GameServ.NpcRolensiaMadam
004028F1   E9 5A0A0900      JMP GameServ.std::_Tree<std::basic_strin>
004028F6   E9 E5270600      JMP GameServ.CEventManagement::Clear
004028FB   E9 604F1000      JMP GameServ.CBloodCastle::GetAliveUserT>
00402900   E9 8BDE0B00      JMP GameServ.gObjSpriteDamage
00402905   E9 66700500      JMP GameServ.CBattleGround::GetScore
0040290A   E9 01060500      JMP GameServ.CPacketCheckSum::Add
0040290F   E9 EC1E0500      JMP GameServ.CDevilSquare::GetDevilSquar>
00402914   E9 D7180400      JMP GameServ.GCGetMutoNumRecv
00402919   E9 42000C00      JMP GameServ.gObjAttack
0040291E   E9 3D1E0200      JMP GameServ.GS_DGAnsTaxRateChange
00402923   E9 C88E1100      JMP GameServ.CCastleSiegeSync::`scalar d>
00402928   E9 A3310200      JMP GameServ.CDragonEvent::GetState
0040292D   E9 AEB80700      JMP GameServ.PlusItemLevelChaosMix
00402932   E9 49C20C00      JMP GameServ.gObjViewportClose
00402937   E9 24650500      JMP GameServ.std::vector<OBJECTSTRUCT *,>
0040293C   E9 EFFB0A00      JMP GameServ.gObjEnd
00402941   E9 EAE40400      JMP GameServ.FriendChatRoomCreateResult
00402946   E9 751C0300      JMP GameServ.GCTradeMoneyOther
0040294B   E9 F05F0200      JMP GameServ.EncryptCheckSumKey
00402950   E9 BB280200      JMP GameServ.GJPUserClose
00402955   E9 F6750700      JMP GameServ.MapClass::AttrLoad
0040295A   E9 811C0500      JMP GameServ.CDevilSquare::SetClose
0040295F   E9 1CA00D00      JMP GameServ.gObjCheckAttackArea
00402964   E9 87660800      JMP GameServ.LogAddHeadHexFuncVoid
00402969   E9 C2931000      JMP GameServ.CChaosCastle::`scalar delet>
0040296E   E9 5D6E0500      JMP GameServ.CBattleGround::SetBattleTyp>
00402973   E9 886E0500      JMP GameServ.CBattleGround::GetUsed
00402978   E9 23A70000      JMP GameServ.std::pair<int const ,_MONST>
0040297D   E9 BECB0A00      JMP GameServ.std::pair<std::_Tree<int,st>
00402982   E9 B9D90E00      JMP GameServ.CGMMng::~CGMMng
00402987   E9 748B0B00      JMP GameServ.gObjGetUserNumber
0040298C   E9 DF4C0700      JMP GameServ.WZQueue::DeleteNode
00402991   E9 3A7A0800      JMP GameServ.PHeadSetBE
00402996   E9 F5190200      JMP GameServ.GS_GDReqResetSiegeGuildInfo
0040299B   E9 20020400      JMP GameServ.GCManaSend
004029A0   E9 7B6F1100      JMP GameServ.std::pair<int const ,_MONST>
004029A5   E9 16CF1000      JMP GameServ.CChaosCastle::AddMonsterLis>
004029AA   E9 81CC0500      JMP GameServ.CRingAttackEvent::SetState_>
004029AF   E9 BC1B0200      JMP GameServ.GS_GDReqAllGuildMarkRegInfo
004029B4   E9 37DD0F00      JMP GameServ.CBloodCastle::`scalar delet>
004029B9   E9 B22F0C00      JMP GameServ.gObjChaosBoxDeleteItem
004029BE   E9 1D550C00      JMP GameServ.gObjWarehouseItemSet
004029C3   E9 E8BE0000      JMP GameServ.CKalimaGate::DeleteKalimaGa>
004029C8   E9 E3F80600      JMP GameServ.CwsGameServer::DataSendW
004029CD   E9 2E250300      JMP GameServ.CGPShopAnsSetItemPrice
004029D2   E9 69130400      JMP GameServ.GCRegEventChipRecv
004029D7   E9 C40D0800      JMP GameServ.CLoginCount::Get
004029DC   E9 6FA00500      JMP GameServ.CEledoradoEvent::RegenDevil>
004029E1   E9 7A810100      JMP GameServ.CMonsterSetBase::`scalar de>
004029E6   E9 A5150900      JMP GameServ.std::_Tree<int,std::pair<in>
004029EB   E9 F0970800      JMP GameServ.CWZScriptEncode::Open
004029F0   E9 1B380600      JMP GameServ.std::vector<EVENT_ID_TIME,s>
004029F5   E9 A6FE0A00      JMP GameServ.gObjClearViewport
004029FA   E9 716A0600      JMP GameServ.std::_Construct
004029FF   E9 5C720400      JMP GameServ.CCastleSiegeSync::GetCastle>
00402A04   E9 87FA0A00      JMP GameServ.CMagicInf::`vector deleting>
00402A09   E9 02D60D00      JMP GameServ.gObjGetGuildUnionNumber
00402A0E   E9 5D9A0E00      JMP GameServ.ItemByteConvert
00402A13   E9 689F0E00      JMP GameServ.OpenItemScript
00402A18   E9 F3650800      JMP GameServ.LogAddHeadHexFunc
00402A1D   E9 FE150600      JMP GameServ.EGRecvRegMutoNum
00402A22   E9 09840400      JMP GameServ.GCAnsCsLeftTimeAlarm
00402A27   E9 74970200      JMP GameServ.GCSkillKeySend
00402A2C   E9 2F6C0000      JMP GameServ.MonsterHerd::GetRandomLocat>
00402A31   E9 2A1B0600      JMP GameServ.EGRecvDeleteStone
00402A36   E9 953A0C00      JMP GameServ.gObjSearchItemMinus
00402A3B   E9 A0C20600      JMP GameServ.CQuestInfo::`scalar deletin>
00402A40   E9 5B990200      JMP GameServ.CGItemGetRequest
00402A45   E9 26660200      JMP GameServ.ChatTargetSend
00402A4A   E9 F15A0800      JMP GameServ.CDirPath::`scalar deleting >
00402A4F   E9 9C8B0200      JMP GameServ.CGPCharacterMapJoinRequest
00402A54   E9 B77F1100      JMP GameServ.CWeapon::GetAttackDamage
00402A59   E9 32CB0800      JMP GameServ.CGuildClass::CGuildClass
00402A5E   E9 9D810500      JMP GameServ.CDragonEvent::DragonActive
00402A63   E9 C8240600      JMP GameServ.CEventManagement::CEventMan>
00402A68   E9 63770700      JMP GameServ.MapClass::GetStandAttr
00402A6D   E9 5E6F1100      JMP GameServ.std::copy
00402A72   E9 79C10900      JMP GameServ.CObjUseSkill::SkillHellFire>
00402A77   E9 D4DA0800      JMP GameServ.CGuildClass::GetGuildMember>
00402A7C   E9 7F570800      JMP GameServ.CIpCache::Init
00402A81   E9 BAD40500      JMP GameServ.std::vector<RINGMONSTER_DAT>
00402A86   E9 A5E50200      JMP GameServ.GCUserWarehouseSend
00402A8B   E9 50EC1000      JMP GameServ.CChaosCastle::GiveUserDamag>
00402A90   E9 0B940700      JMP GameServ.CMapItem::`scalar deleting >
00402A95   E9 A63B0600      JMP GameServ.std::vector<EVENT_ID_TIME,s>
00402A9A   E9 F18E0500      JMP GameServ.CAttackEvent::Start_Menual
00402A9F   E9 ECD70400      JMP GameServ.WaitFriendListResult
00402AA4   E9 17A91100      JMP GameServ.CMapServerManager::CheckMov>
00402AA9   E9 E24B0500      JMP GameServ.CDevilSquareGround::SetBoss
00402AAE   E9 1DD50D00      JMP GameServ.gObjCheckAttackTypeMagic
00402AB3   E9 08890700      JMP GameServ.PATH::FindPath2
00402AB8   E9 532B0800      JMP GameServ.std::basic_string<char,std:>
00402ABD   E9 2ED50500      JMP GameServ.std::vector<RINGMONSTER_DAT>
00402AC2   E9 09A50800      JMP GameServ.TNotice::MakeNoticeMsgUnico>
00402AC7   E9 54160300      JMP GameServ.GCTradeOtherDel
00402ACC   E9 6FC01100      JMP GameServ.std::_Tree<int,std::pair<in>
00402AD1   E9 4A800400      JMP GameServ.GCAnsTaxRateChange
00402AD6   E9 75140900      JMP GameServ.std::_Tree<std::basic_strin>
00402ADB   E9 30790800      JMP GameServ.PHeadSubSetBE
00402AE0   E9 2BE61100      JMP GameServ.std::_Destroy
00402AE5   E9 C67E0500      JMP GameServ.CDragonEvent::Init
00402AEA   E9 F17C0000      JMP GameServ.std::map<int,_MONSTER_HERD_>
00402AEF   E9 CC6D1100      JMP GameServ.std::allocator<CHAOSCASTLE_>
00402AF4   E9 373D0600      JMP GameServ.std::_Tree<int,std::pair<in>
00402AF9   E9 42490300      JMP GameServ.CGPartyRequestRecv
00402AFE   E9 AD441100      JMP GameServ.std::vector<tagPOINT,std::a>
00402B03   E9 F80B0900      JMP GameServ.std::_Tree<std::basic_strin>
00402B08   E9 13FF0600      JMP GameServ.CWzMultiCastSock::EndMultiC>
00402B0D   E9 7E870000      JMP GameServ.std::_Tree<int,std::pair<in>
00402B12   E9 49760600      JMP GameServ.CItemBagEx::`scalar deletin>
00402B17   E9 44830800      JMP GameServ.VectorInverse
00402B1C   E9 2F6B0600      JMP GameServ.CItemBag::`scalar deleting >
00402B21   E9 0AB00D00      JMP GameServ.gObjCheckStatPointDown
00402B26   E9 45430800      JMP GameServ.std::_Tree<std::basic_strin>
00402B2B   E9 E09A0000      JMP GameServ.std::_Tree<int,std::pair<in>
00402B30   E9 0BAC0500      JMP GameServ.CRingMonsterHerd::Start
00402B35   E9 46DC0C00      JMP GameServ.PShop_CheckInventoryEmpty
00402B3A   E9 E1771000      JMP GameServ.CBloodCastle::SendBridgeAny>
00402B3F   E9 8C3A0900      JMP GameServ.CViewportGuild::Add
00402B44   E9 47E71000      JMP GameServ.CChaosCastle::CalcSendRewar>
00402B49   E9 327E0500      JMP GameServ.CDragonEvent::~CDragonEvent
00402B4E   E9 9DEF0400      JMP GameServ.FriendMemoRead
00402B53   E9 08E70800      JMP GameServ.std::map<int,_GUILD_INFO_ST>
00402B58   E9 C37E0400      JMP GameServ.GCAnsNpcBuy
00402B5D   E9 7E900200      JMP GameServ.GCMagicListOneDelSend
00402B62   E9 19C80F00      JMP GameServ.CGate::`scalar deleting des>
00402B67   E9 F4970B00      JMP GameServ.gObjStateProc
00402B6C   E9 9F2D0C00      JMP GameServ.gObjWarehouseDeleteItem
00402B71   E9 FAFD0200      JMP GameServ.CGModifyRequestItem
00402B76   E9 C5120200      JMP GameServ.GS_GDReqRestartCastleState
00402B7B   E9 D0C11100      JMP GameServ.std::_Tree<int,std::pair<in>
00402B80   E9 CB550800      JMP GameServ.CIpCache::CIpCache
00402B85   E9 96DF0F00      JMP GameServ.CBloodCastle::Load
00402B8A   E9 41E00A00      JMP GameServ.TUnionInfo::~TUnionInfo
00402B8F   E9 9C8A0400      JMP GameServ.GCAnsJewelMix
00402B94   E9 C7C80F00      JMP GameServ.CGate::Load
00402B99   E9 A21B0A00      JMP GameServ.gObjCalCharacter
00402B9E   E9 DDAA0A00      JMP GameServ.std::map<int,TUnionInfo *,s>
00402BA3   E9 B8C81000      JMP GameServ.CChaosCastle::ClearMonster
00402BA8   E9 431E0200      JMP GameServ.GS_DGAnsGuildMarkReset
00402BAD   E9 8ED11000      JMP GameServ.CChaosCastle::SearchNDropMo>
00402BB2   E9 C9E10800      JMP GameServ.gGuildNoticeStringCheck
00402BB7   E9 84D50800      JMP GameServ.CGuildClass::AddMember
00402BBC   E9 CF7C0700      JMP GameServ.PATH::FindNextDir
00402BC1   E9 7A210200      JMP GameServ.GS_DGAnsFirstCreateNPC
00402BC6   E9 B5FA0000      JMP GameServ.gObjUseMonsterSpecialAbilli>
00402BCB   E9 F0CD0100      JMP GameServ.JGCharacterCreateRequest
00402BD0   E9 2B690E00      JMP GameServ.CItem::ItemDamageMin
00402BD5   E9 F6820B00      JMP GameServ.gObjCheckXYMapTile
00402BDA   E9 51341100      JMP GameServ.CChaosCastle::CheckRegister>
00402BDF   E9 FCFA1000      JMP GameServ.CChaosCastle::GetCurrentSta>
00402BE4   E9 57691100      JMP GameServ.std::_Tree<int,std::pair<in>
00402BE9   E9 D2800800      JMP GameServ._VectorCopy
00402BEE   E9 DDE71000      JMP GameServ.CChaosCastle::GetUserLevelT>
00402BF3   E9 C8530800      JMP GameServ.std::char_traits<char>::ass>
00402BF8   E9 13460300      JMP GameServ.CGPShopAnsBuyItem
00402BFD   E9 3E500C00      JMP GameServ.gObjMapRectCheck
00402C02   E9 09540800      JMP GameServ.std::char_traits<char>::len>
00402C07   E9 E46F1100      JMP GameServ.std::_Construct
00402C0C   E9 2FDA0B00      JMP GameServ.gObjWingSprite
00402C11   E9 DA940700      JMP GameServ.CMapItem::DropCreateItem
00402C16   E9 75730600      JMP GameServ.CItemBag::GetOp3
00402C1B   E9 B00A0500      JMP GameServ.CSendHackLog::SendData
00402C20   E9 9B2C0700      JMP GameServ.IoMoreSend
00402C25   E9 26DD0500      JMP GameServ.std::allocator<RINGMONSTER_>
00402C2A   E9 91720200      JMP GameServ.GCMapEventStateSend
00402C2F   E9 3CE30600      JMP GameServ.CQuestInfo::GetQuestConditi>
00402C34   E9 076B0600      JMP GameServ.CItemBag::LoadItem
00402C39   E9 12470300      JMP GameServ.CGPShopAnsSoldItem
00402C3E   E9 9D061100      JMP GameServ.CChaosCastle::BlowObjsFromP>
00402C43   E9 38741100      JMP GameServ.CGuardian::CreateGuardian
00402C48   E9 E3F10A00      JMP GameServ.gObjRefillProcess
00402C4D   E9 AEBD0E00      JMP GameServ.OpenItemNameScript
00402C52   E9 89E20300      JMP GameServ.ObjectMapJoinPositionSend
00402C57   E9 B4040700      JMP GameServ.DestroyGIocp
00402C5C   E9 EF1B1000      JMP GameServ.CBloodCastle::ClearMonster
00402C61   E9 5A010F00      JMP GameServ.CMoveCommand::CMoveCommand
00402C66   E9 65FB1100      JMP GameServ.NpcDeviasWeapon
00402C6B   E9 606F1100      JMP GameServ.std::_Destroy
00402C70   E9 AB070900      JMP GameServ.std::_Tree<std::basic_strin>
00402C75   E9 A68D0500      JMP GameServ.CAttackEvent::End_Menual
00402C7A   E9 F16F0300      JMP GameServ.GCGuildDelUserResult
00402C7F   E9 BC4F0500      JMP GameServ.CDevilSquareGround::FindMon>
00402C84   E9 D7700200      JMP GameServ.GCServerMsgStringSend
00402C89   E9 C2BD0C00      JMP GameServ.gObjCheckViewport
00402C8E   E9 BDAB0A00      JMP GameServ.std::_Tree<int,std::pair<in>
00402C93   E9 E82A0800      JMP GameServ.std::basic_string<char,std:>
00402C98   E9 43720500      JMP GameServ.ClearBattleSoccer
00402C9D   E9 BE7D0400      JMP GameServ.GCAnsNpcRepair
00402CA2   E9 89450600      JMP GameServ.std::map<int,void *,std::le>
00402CA7   E9 94960800      JMP GameServ.CWZScriptEncode::Encode
00402CAC   E9 8F850700      JMP GameServ.TERRAIN_INDEX_REPEAT
00402CB1   E9 FA021100      JMP GameServ.CChaosCastle::SearchNBlowOb>
00402CB6   E9 F5750A00      JMP GameServ.CDarkSpirit::Init
00402CBB   E9 C00D0200      JMP GameServ.GS_GDReqCastleMoneyChange
00402CC0   E9 AB810E00      JMP GameServ.CItem::DurabilityDown
00402CC5   E9 36F60B00      JMP GameServ.gObjArmorRandomDurDown
00402CCA   E9 91830700      JMP GameServ.PATH::GetPath
00402CCF   E9 6C6B0D00      JMP GameServ.gObjItemLevelUp
00402CD4   E9 B7DB1000      JMP GameServ.CChaosCastle::SendAllLoserF>
00402CD9   E9 32700700      JMP GameServ.MapClass::StateSetDestroy
00402CDE   E9 ADD80A00      JMP GameServ.std::_Tree<int,std::pair<in>
00402CE3   E9 980E0F00      JMP GameServ.CMoveCommand::CheckMainToMo>
00402CE8   E9 13740600      JMP GameServ.CItemBagDropMapInfo::CItemB>
00402CED   E9 AED81100      JMP GameServ.std::_Tree<int,std::pair<in>
00402CF2   E9 69720800      JMP GameServ.SpaceSyntexCheck
00402CF7   E9 F4D10F00      JMP GameServ.CGate::GetGate
00402CFC   E9 BFA90A00      JMP GameServ.std::_Tree<int,std::pair<in>
00402D01   E9 FA440600      JMP GameServ.std::allocator<EVENT_ID_TIM>
00402D06   E9 256E1100      JMP GameServ.std::fill
00402D0B   E9 20361100      JMP GameServ.std::_Tree<int,std::pair<in>
00402D10   E9 2B5A0600      JMP GameServ.std::vector<EVENT_ID_TIME,s>
00402D15   E9 06D10800      JMP GameServ.CGuildClass::SearchGuild
00402D1A   E9 31800400      JMP GameServ.CGReqCsMiniMapData
00402D1F   E9 BC7E0100      JMP GameServ.CMonsterSetBase::SetBoxPosi>
00402D24   E9 E7760500      JMP GameServ.gBattleSoccerScoreUpdate
00402D29   E9 C26B1100      JMP GameServ.std::allocator<tagPOINT>::c>
00402D2E   E9 AD9E1000      JMP GameServ.CChaosCastle::CheckSync
00402D33   E9 E86B0000      JMP GameServ.MonsterHerd::MonsterHerdIte>
00402D38   E9 C3930800      JMP GameServ.CWZScriptEncode::CWZScriptE>
00402D3D   E9 9E140B00      JMP GameServ.GetMapMoveLevel
00402D42   E9 39F90900      JMP GameServ.CObjUseSkill::SkillStun
00402D47   E9 647D0B00      JMP GameServ.gObjIsConnected
00402D4C   E9 1F850500      JMP GameServ.CAttackEvent::Start
00402D51   E9 6A5E0C00      JMP GameServ.gObjWarehouseSearchSerialNu>
00402D56   E9 752F0900      JMP GameServ.std::_Tree<std::basic_strin>
00402D5B   E9 30B60800      JMP GameServ.std::basic_string<char,std:>
00402D60   E9 8B0A0500      JMP GameServ.DevilSquareThreadFunc
00402D65   E9 E6D71100      JMP GameServ.std::allocator<_MAPSVR_DATA>
00402D6A   E9 71460700      JMP GameServ.WZQueue::NextQ
00402D6F   E9 8C920B00      JMP GameServ.gObjAddMsgSendDelayInSpecif>
00402D74   E9 17A10D00      JMP GameServ.gObjFind
00402D79   E9 F2C80700      JMP GameServ.WingChaosMix
00402D7E   E9 4D7B0200      JMP GameServ.CSPJoinIdPassRequestTEST
00402D83   E9 28290200      JMP GameServ.GJPBillCeckRecv
00402D88   E9 236C0F00      JMP GameServ.GameServerInfoSend
00402D8D   E9 AE6B0000      JMP GameServ.MonsterHerd::MonsterMoveAct>
00402D92   E9 79980500      JMP GameServ.CEledoradoEvent::RegenGoldD>
00402D97   E9 F4761100      JMP GameServ.CMercenary::SearchEnemy
00402D9C   E9 9F8E0500      JMP GameServ.CEledoradoEvent::Init
00402DA1   E9 7A7D0800      JMP GameServ.CrossProduct
00402DA6   E9 95A10D00      JMP GameServ.gObjFind10EventChip
00402DAB   E9 70A00400      JMP GameServ.GDGuildUpdate
00402DB0   E9 1BC01100      JMP GameServ.std::_Tree<int,std::pair<in>
00402DB5   E9 46B90800      JMP GameServ.PartyClass::IsParty
00402DBA   E9 117D0E00      JMP GameServ.CItem::IsExtMonsterMoney
00402DBF   E9 3C850200      JMP GameServ.CGPCharDel
00402DC4   E9 97450B00      JMP GameServ.gObjWarehouseTextSave
00402DC9   E9 624E0800      JMP GameServ.std::operator==
00402DCE   E9 1DC40700      JMP GameServ.CircleChaosMix
00402DD3   E9 C8C40A00      JMP GameServ.std::vector<int,std::alloca>
00402DD8   E9 C3F50600      JMP GameServ.CwsGameServer::FDWRITE_MsgD>
00402DDD   E9 EEE60400      JMP GameServ.WithdrawUserMoney
00402DE2   E9 89640600      JMP GameServ.std::pair<int const ,void *>
00402DE7   E9 14540D00      JMP GameServ.gObjTeleport
00402DEC   E9 EF210600      JMP GameServ.CEventManagement::`scalar d>
00402DF1   E9 3A840500      JMP GameServ.CAttackEvent::Init
00402DF6   E9 65040E00      JMP GameServ.CSetItemOption::~CSetItemOp>
00402DFB   E9 B0330300      JMP GameServ.CGPShopReqBuyItem
00402E00   E9 FBB60000      JMP GameServ.CKalimaGate::CheckOverlapKu>
00402E05   E9 96DE0500      JMP GameServ.std::_Construct
00402E0A   E9 51370600      JMP GameServ.std::_Tree<int,std::pair<in>
00402E0F   E9 BCD90A00      JMP GameServ.std::swap
00402E14   E9 27AF0500      JMP GameServ.CRingAttackEvent::`scalar d>
00402E19   E9 82060600      JMP GameServ.LuckyBoxOpenEven
00402E1E   E9 CDFF0E00      JMP GameServ.CMoveCommand::`scalar delet>
00402E23   E9 F8FE0900      JMP GameServ.CObjUseSkill::SkillAddMana
00402E28   E9 53280800      JMP GameServ.std::basic_string<char,std:>
00402E2D   E9 9E250E00      JMP GameServ.CSetItemOption::MakeSetOpti>
00402E32   E9 79150A00      JMP GameServ.CComboAttack::~CComboAttack
00402E37   E9 447C0800      JMP GameServ.Q_rint
00402E3C   E9 8F8A0900      JMP GameServ.CObjUseSkill::GetUseBP
00402E41   E9 9AF60B00      JMP GameServ.gObjIsSelfDefense
00402E46   E9 C51A0900      JMP GameServ.std::_Tree<int,std::pair<in>
00402E4B   E9 B0320700      JMP GameServ.MyWinsockBase::GetSendBuffS>
00402E50   E9 BBCE0300      JMP GameServ.GCTeleportSend
00402E55   E9 E6E10800      JMP GameServ.std::_Tree<std::basic_strin>
00402E5A   E9 01AA0800      JMP GameServ.CCallStackTrace::~CCallStac>
00402E5F   E9 CCA60500      JMP GameServ.CEledoradoEvent::Start_Menu>
00402E64   E9 B7AA0600      JMP GameServ.CMagicDamage::GetskillRequi>
00402E69   E9 92331100      JMP GameServ.std::_Tree<int,std::pair<in>
00402E6E   E9 4DD31000      JMP GameServ.CChaosCastle::SendNoticeMes>
00402E73   E9 28280700      JMP GameServ.IoSendSecond
00402E78   E9 E3190200      JMP GameServ.GS_DGAnsMapSvrMsgMultiCast
00402E7D   E9 3E681100      JMP GameServ.std::vector<tagPOINT,std::a>
00402E82   E9 E92D0900      JMP GameServ.std::allocator<_GUILD_INFO_>
00402E87   E9 549E0A00      JMP GameServ.TUnion::`scalar deleting de>
00402E8C   E9 1FAF0900      JMP GameServ.CObjUseSkill::SkillBlowOfFu>
00402E91   E9 CA720800      JMP GameServ.FileSaveString
00402E96   E9 D5750100      JMP GameServ.CMonsterItemMng::gObjGiveIt>
00402E9B   E9 90D70800      JMP GameServ.CGuildClass::SetGuildMember>
00402EA0   E9 0B381100      JMP GameServ.std::vector<tagPOINT,std::a>
00402EA5   E9 F6650E00      JMP GameServ.CItem::GetSize
00402EAA   E9 31320600      JMP GameServ.CEventManagement::RegEvent
00402EAF   E9 4CC80500      JMP GameServ.CRingAttackEvent::Move
00402EB4   E9 074D1000      JMP GameServ.CBloodCastle::SearchUserDro>
00402EB9   E9 B2DF1000      JMP GameServ.CChaosCastle::AddFallUser
00402EBE   E9 4D0A0500      JMP GameServ.CDevilSquare::CDevilSquare
00402EC3   E9 68C60400      JMP GameServ.DGRelationShipNotificationR>
00402EC8   E9 437B0000      JMP GameServ.std::pair<int,_MONSTER_HERD>
00402ECD   E9 1EA10700      JMP GameServ.CBUPR_ItemRequestRecv
00402ED2   E9 C9DD0E00      JMP GameServ.CGMMng::BattleInfoSend
00402ED7   E9 C4A40000      JMP GameServ.CKalimaGate::`scalar deleti>
00402EDC   E9 9FD31100      JMP GameServ.std::_Tree<int,std::pair<in>
00402EE1   E9 FA380600      JMP GameServ.std::_Tree<int,std::pair<in>
00402EE6   E9 C5081100      JMP GameServ.CChaosCastle::BlowObjsToPoi>
00402EEB   E9 B0DC0E00      JMP GameServ.CGMMng::ManagerSendData
00402EF0   E9 5B420800      JMP GameServ.std::_Tree<std::basic_strin>
00402EF5   E9 76F20400      JMP GameServ._GUILD_INFO_STRUCT::SetGuil>
00402EFA   E9 A1FD1100      JMP GameServ.NpcSiegeMachine_Defense
00402EFF   E9 3C2B0800      JMP GameServ.std::_Tree<std::basic_strin>
00402F04   E9 B7990C00      JMP GameServ.gObjTempInventoryRectCheck
00402F09   E9 E2190400      JMP GameServ.GCSendQuestPrize
00402F0E   E9 DDD50000      JMP GameServ.gObjCallMonsterSetEnemy
00402F13   E9 B8260800      JMP GameServ.std::pair<std::_Tree<std::b>
00402F18   E9 234C0E00      JMP GameServ.CItem::Value
00402F1D   E9 6E240F00      JMP GameServ.gJoomin15Check
00402F22   E9 49D40E00      JMP GameServ.CGMMng::Init
00402F27   E9 A4DA0A00      JMP GameServ.std::_Iter_cat
00402F2C   E9 5FAE0800      JMP GameServ.CCallStackTrace::TraceStack
00402F31   E9 4A360800      JMP GameServ.std::_Tree<std::basic_strin>
00402F36   E9 A5B60D00      JMP GameServ.gObjDuelCheck
00402F3B   E9 107A1000      JMP GameServ.CBloodCastle::CheckEveryUse>
00402F40   E9 5BD41000      JMP GameServ.CChaosCastle::SendNoticeSta>
00402F45   E9 A6650D00      JMP GameServ.gObjWeaponMagicAdd
00402F4A   E9 71B50800      JMP GameServ.std::basic_string<char,std:>
00402F4F   E9 6C8C0500      JMP GameServ.CEledoradoEvent::`scalar de>
00402F54   E9 872C0200      JMP GameServ.JGPOptionControl
00402F59   E9 02571100      JMP GameServ.std::_Tree<int,std::pair<in>
00402F5E   E9 1D6D0400      JMP GameServ.CGRelationShipAnsJoinBreakO>
00402F63   E9 D8080F00      JMP GameServ.CMoveCommand::LoadMoveLevel
00402F68   E9 23F00600      JMP GameServ.CwsGameServer::~CwsGameServ>
00402F6D   E9 9E1B0C00      JMP GameServ.gObjInventoryTrans
00402F72   E9 79340900      JMP GameServ.std::pair<std::basic_string>
00402F77   E9 A4700B00      JMP GameServ.gObjGameClose
00402F7C   E9 2F920800      JMP GameServ.CWZScriptEncode::~CWZScript>
00402F81   E9 2A9B0A00      JMP GameServ.CDarkSpirit::SendLevelmsg
00402F86   E9 D5821000      JMP GameServ.CBloodCastle::DropItemDirec>
00402F8B   E9 E0FF0700      JMP GameServ.CAcceptIp::`scalar deleting>
00402F90   E9 9B6A0500      JMP GameServ.CBattleGround::GetTimer
00402F95   E9 06630300      JMP GameServ.CGGuildRequestResultRecv
00402F9A   E9 918E0300      JMP GameServ.GCGuildWarEnd
00402F9F   E9 3C041200      JMP GameServ.CGameServerAuth::~CGameServ>
00402FA4   E9 17D61100      JMP GameServ.std::_Tree<int,std::pair<in>
00402FA9   E9 02A00700      JMP GameServ.ChaosEventProtocolCore
00402FAE   E9 DDDC1100      JMP GameServ.std::_Tree<int,std::pair<in>
00402FB3   E9 A8341100      JMP GameServ.std::vector<CHAOSCASTLE_STA>
00402FB8   E9 C38F0D00      JMP GameServ.gObjGetPkTime
00402FBD   E9 7EAC0A00      JMP GameServ.std::_Tree<int,std::pair<in>
00402FC2   E9 195C0200      JMP GameServ.GCResultSend
00402FC7   E9 44D80A00      JMP GameServ.std::fill
00402FCC   E9 EF190E00      JMP GameServ.CSetItemOption::GetOptionTa>
00402FD1   E9 AA0E0700      JMP GameServ.RecvDataParse
00402FD6   E9 45660800      JMP GameServ.CLogToFile::CLogToFile
00402FDB   E9 70F40F00      JMP GameServ.CBloodCastle::ProcState_Pla>
00402FE0   E9 4BD40A00      JMP GameServ.std::allocator<TUnionInfo *>
00402FE5   E9 565C0200      JMP GameServ.ChatSend
00402FEA   E9 21940800      JMP GameServ.CWZScriptEncode::UnGetC
00402FEF   E9 AC8E0300      JMP GameServ.GCGuildWarScore
00402FF4   E9 272F0200      JMP GameServ.LoveHeartCreateSend
00402FF9   E9 32490700      JMP GameServ.WzUdp::`scalar deleting des>
00402FFE   E9 BD820500      JMP GameServ.CAttackEvent::Run
00403003   E9 E8B41100      JMP GameServ.std::_Tree<int,std::pair<in>
00403008   E9 03351100      JMP GameServ.std::vector<CHAOSCASTLE_STA>
0040300D   E9 1E9A0A00      JMP GameServ.CDarkSpirit::ChangeCommand
00403012   E9 B9220100      JMP GameServ.gObjRefillMonsterHP
00403017   E9 C4551100      JMP GameServ.std::_Tree<int,std::pair<in>
0040301C   E9 FF780400      JMP GameServ.GCAnsRegCastleSiege
00403021   E9 EA0F0800      JMP GameServ.std::map<std::basic_string<>
00403026   E9 254C0700      JMP GameServ.WzUdp::RecvSet
0040302B   E9 30D90100      JMP GameServ.GDGetWarehouseList
00403030   E9 0BBA1100      JMP GameServ.std::_Tree<int,std::pair<in>
00403035   E9 96701100      JMP GameServ.CGuardian::GuardianAct
0040303A   E9 F1BD1000      JMP GameServ.CChaosCastle::SetState_Clos>
0040303F   E9 5CE60800      JMP GameServ.std::_Tree<std::basic_strin>
00403044   E9 47690800      JMP GameServ.CMoveCheck::`scalar deletin>
00403049   E9 C2A60500      JMP GameServ.CRingMonsterHerd::~CRingMon>
0040304E   E9 2D7B0400      JMP GameServ.GCAnsCsGateState
00403053   E9 F8AC1100      JMP GameServ.CMapServerManager::GetSvrCo>
00403058   E9 B32B0900      JMP GameServ.std::_Tree<int,std::pair<in>
0040305D   E9 DE6A0900      JMP GameServ.CObjBaseAttack::CObjBaseAtt>
00403062   E9 297E0700      JMP GameServ.PATH::VerifyThatOnPath
00403067   E9 C4D11100      JMP GameServ.std::_Tree<int,std::pair<in>
0040306C   E9 EF880200      JMP GameServ.GCInventoryItemOneSend
00403071   E9 1ABE0B00      JMP GameServ.gObjUserDie
00403076   E9 25570600      JMP GameServ.std::vector<EVENT_ID_TIME,s>
0040307B   E9 20100A00      JMP GameServ.CStatMng::`scalar deleting >
00403080   E9 9BA10D00      JMP GameServ.gObjGetItemCountInEquipment
00403085   E9 565B0600      JMP GameServ.std::_Tree<int,std::pair<in>
0040308A   E9 E1040200      JMP GameServ.GS_GDReqCastleTotalInfo
0040308F   E9 3CE80900      JMP GameServ.CObjUseSkill::SkillImmuneTo>
00403094   E9 37630600      JMP GameServ.std::_Destroy
00403099   E9 62D70C00      JMP GameServ.gObjStateSetCreate
0040309E   E9 7D1C0200      JMP GameServ.GS_DGAnsAllGuildMarkRegInfo
004030A3   E9 58F01000      JMP GameServ.CChaosCastle::CheckEnterLev>
004030A8   E9 93BA0300      JMP GameServ.CGActionRecv
004030AD   E9 6EEE0400      JMP GameServ.FriendRoomInvitationReq
004030B2   E9 E9FA0C00      JMP GameServ.gObjRestPotionFill
004030B7   E9 34F20800      JMP GameServ.std::_Tree<std::basic_strin>
004030BC   E9 8F860B00      JMP GameServ.gObjUserIdConnectCheck
004030C1   E9 9AD90600      JMP GameServ.CQuestInfo::IsQuest
004030C6   E9 75BD0500      JMP GameServ.CRingAttackEvent::SetState
004030CB   E9 30790400      JMP GameServ.CGReqNpcBuy
004030D0   E9 4B0E1200      JMP GameServ.CMultiCheckSum::Init
004030D5   E9 36A20D00      JMP GameServ.gObjGetItemCountInIventory
004030DA   E9 21A00000      JMP GameServ.std::swap
004030DF   E9 7C080A00      JMP GameServ.classdef::SetCharacter
004030E4   E9 07521000      JMP GameServ.CBloodCastle::GiveReward_Wi>
004030E9   E9 E24F0A00      JMP GameServ.gObjCalcSetItemStat
004030EE   E9 5D720500      JMP GameServ.GetBattleTeamScore
004030F3   E9 C8750500      JMP GameServ.gCheckBattleGround
004030F8   E9 03731100      JMP GameServ.CMercenary::DeleteMercenary
004030FD   E9 AE920800      JMP GameServ.CWZScriptEncode::GetC
00403102   E9 79320600      JMP GameServ.std::map<int,void *,std::le>
00403107   E9 74600700      JMP GameServ.MapClass::ItemDrop
0040310C   E9 CF1B0200      JMP GameServ.GS_DGAnsCastleInitData
00403111   E9 AA2F0700      JMP GameServ.MyWinsockBase::GetSocket
00403116   E9 95690000      JMP GameServ.MonsterHerd::MonsterBaseAct
0040311B   E9 E0540800      JMP GameServ.CDirPath::GetNewPath
00403120   E9 4B8F1000      JMP GameServ.CChaosCastle::Init
00403125   E9 36280200      JMP GameServ.GJPUserDisconnectRecv
0040312A   E9 01080200      JMP GameServ.GS_GDReqTaxInfo
0040312F   E9 0C8A0C00      JMP GameServ.gObjInventoryTradeMove
00403134   E9 87111000      JMP GameServ.CBloodCastle::CheckWalk
00403139   E9 D2790B00      JMP GameServ.gObjIsConnected
0040313E   E9 AD460800      JMP GameServ.std::_Tree<std::basic_strin>
00403143   E9 F8D90600      JMP GameServ.CQuestInfo::GetQuestStateBY>
00403148   E9 939D0400      JMP GameServ.DGGuildMemberInfoRequest
0040314D   E9 3E0E0800      JMP GameServ.CConMember::`scalar deletin>
00403152   E9 49580500      JMP GameServ.std::vector<OBJECTSTRUCT *,>
00403157   E9 94540600      JMP GameServ.std::_Tree<int,std::pair<in>
0040315C   E9 5FEC0600      JMP GameServ.CQuestInfo::QuestInfoSave
00403161   E9 EADF1000      JMP GameServ.CChaosCastle::SetUserState
00403166   E9 D54E0800      JMP GameServ.std::char_traits<char>::cop>
0040316B   E9 30160200      JMP GameServ.GS_DGAnsSiegeDateChange
00403170   E9 2B6D0600      JMP GameServ.CItemBag::GetLevel
00403175   E9 761C0C00      JMP GameServ.gObjInventoryCommit
0040317A   E9 E1351100      JMP GameServ.std::vector<int,std::alloca>
0040317F   E9 DC2D0200      JMP GameServ.AllNoticeRecv
00403184   E9 67970E00      JMP GameServ.GetRepairItemRate
00403189   E9 A23F0400      JMP GameServ.CGDuelEndRequestRecv
0040318E   E9 ED890B00      JMP GameServ.gObjSetInventory2Pointer
00403193   E9 78C40500      JMP GameServ.CRingMonsterHerd::GetY
00403198   E9 43E41000      JMP GameServ.CChaosCastle::PayUserEnterM>
0040319D   E9 AE3B0700      JMP GameServ.WZQueue::GetCount
004031A2   E9 29B50800      JMP GameServ.PartyClass::~PartyClass
004031A7   E9 94351000      JMP GameServ.CBloodCastle::ReleaseCastle>
004031AC   E9 AF740700      JMP GameServ.PATH::FindPath
004031B1   E9 1AE01100      JMP GameServ.NpcTalk
004031B6   E9 D5250300      JMP GameServ.CGPShopReqBuyList
004031BB   E9 A0810B00      JMP GameServ.gObjSetAccountLogin
004031C0   E9 5B0E0200      JMP GameServ.GS_GDReqGuildMarkReset
004031C5   E9 A6670F00      JMP GameServ.GameServerInfoSendStop
004031CA   E9 31930800      JMP GameServ.CWZScriptEncode::GetToken
004031CF   E9 6C5B0700      JMP GameServ.MapClass::SetWeather
004031D4   E9 27E50F00      JMP GameServ.CBloodCastle::ClearBridgeDa>
004031D9   E9 821E0600      JMP GameServ.CEventManagement::~CEventMa>
004031DE   E9 BDCD0E00      JMP GameServ.ShopDataLoad
004031E3   E9 88200900      JMP GameServ.std::_Tree<std::basic_strin>
004031E8   E9 83C71100      JMP GameServ.std::_Tree<int,std::pair<in>
004031ED   E9 4E5D0600      JMP GameServ.std::_Tree<int,std::pair<in>
004031F2   E9 599E0A00      JMP GameServ.TUnion::AddUnion
004031F7   E9 E4AB0A00      JMP GameServ.std::_Tree<int,std::pair<in>
004031FC   E9 9F3A0500      JMP GameServ.CDevilSquare::ItemClear
00403201   E9 DA000900      JMP GameServ.std::pair<int const ,_GUILD>
00403206   E9 955E0600      JMP GameServ.std::_Tree<int,std::pair<in>
0040320B   E9 40051200      JMP GameServ.CGameServerAuth::SetInfo
00403210   E9 0B1D0E00      JMP GameServ.CSetItemOption::GetGetFullS>
00403215   E9 A67D0200      JMP GameServ.CGPCharacterCreate
0040321A   E9 A12D0400      JMP GameServ.CGReqMoveOtherServer
0040321F   E9 ECFA0300      JMP GameServ.GCItemUseSpecialTimeSend
00403224   E9 670D0800      JMP GameServ.CConMember::`scalar deletin>
00403229   E9 429C0100      JMP GameServ.DBSockMng::DBSockMng
0040322E   E9 3DB21100      JMP GameServ.std::allocator<_MAPSVR_DATA>
00403233   E9 C8320900      JMP GameServ.CViewportGuild::`scalar del>
00403238   E9 73150800      JMP GameServ.std::pair<std::basic_string>
0040323D   E9 4EFE0600      JMP GameServ.CreateGIocp
00403242   E9 49790200      JMP GameServ.CGClientCloseMsg
00403247   E9 543E0700      JMP GameServ.WZQueue::AddToQueueList
0040324C   E9 5FBB1100      JMP GameServ.std::_Tree<int,std::pair<in>
00403251   E9 CACF0400      JMP GameServ.char_ID::char_ID
00403256   E9 75FA0100      JMP GameServ.PWMSG_HEAD::set
0040325B   E9 E0310900      JMP GameServ.std::pair<std::basic_string>
00403260   E9 ABAD0A00      JMP GameServ.std::allocator<TUnionInfo *>
00403265   E9 76A20800      JMP GameServ.TNotice::SendToUser
0040326A   E9 C15B0800      JMP GameServ.LogAddLocalFuncVoid
0040326F   E9 7C5F0400      JMP GameServ.CGGuildAssignType
00403274   E9 67670800      JMP GameServ.CMoveCheck::~CMoveCheck
00403279   E9 B23C0F00      JMP GameServ.GameMainServerCreate
0040327E   E9 2D6E0400      JMP GameServ.CGRelationShipReqKickOutUni>
00403283   E9 78770500      JMP GameServ.CDragonEvent::Start
00403288   E9 237F0500      JMP GameServ.CAttackEvent::`scalar delet>
0040328D   E9 8E700500      JMP GameServ.SetBattleTeamScore
00403292   E9 69790400      JMP GameServ.GCAnsCsAccessSwitchState
00403297   E9 247E0000      JMP GameServ.std::_Tree<int,std::pair<in>
0040329C   E9 FFB11100      JMP GameServ.std::_Tree<int,std::pair<in>
004032A1   E9 2ABF0F00      JMP GameServ.About
004032A6   E9 856F0A00      JMP GameServ.CDarkSpirit::`scalar deleti>
004032AB   E9 40E80200      JMP GameServ.CGSellRequestRecv
004032B0   E9 CB670F00      JMP GameServ.CheckSumFileLoad
004032B5   E9 A6EC0D00      JMP GameServ.CJewelMixSystem::GetJewelCo>
004032BA   E9 81210100      JMP GameServ.gObjMonsterDieRewardItems
004032BF   E9 1CFD1100      JMP GameServ.NpcCastleCrown
004032C4   E9 17740800      JMP GameServ.CWhisperCash::DelCash
004032C9   E9 623C0800      JMP GameServ.std::basic_string<char,std:>
004032CE   E9 8D960700      JMP GameServ.ChaosBoxMix
004032D3   E9 38540600      JMP GameServ.std::_Tree<int,std::pair<in>
004032D8   E9 C3AC0F00      JMP GameServ.InitInstance
004032DD   E9 FE700500      JMP GameServ.GetBattleSoccerGoalMove
004032E2   E9 79790900      JMP GameServ.CObjBaseAttack::GetPartyMem>
004032E7   E9 94520700      JMP GameServ.MapClass::~MapClass
004032EC   E9 FF0C0B00      JMP GameServ.gObjSetDuelOption
004032F1   E9 CA370D00      JMP GameServ.gObjTeleportMagicUse
004032F6   E9 75831100      JMP GameServ.CWeapon::WeaponAct
004032FB   E9 E0150800      JMP GameServ.std::map<std::basic_string<>
00403300   E9 9BAB0400      JMP GameServ.DGGuildAnsAssignStatus
00403305   E9 56751000      JMP GameServ.CBloodCastle::CheckBossKill>
0040330A   E9 01D80E00      JMP GameServ.CGMMng::ManagerDel
0040330F   E9 EC610800      JMP GameServ.LogClose
00403314   E9 F7E20100      JMP GameServ.GDUserItemSave
00403319   E9 C2990A00      JMP GameServ.TUnion::`scalar deleting de>
0040331E   E9 DD741100      JMP GameServ.CWeapon::~CWeapon
00403323   E9 D8A10A00      JMP GameServ.std::map<int,TUnionInfo *,s>
00403328   E9 B3680500      JMP GameServ.CBattleSoccer::SetGoalLeftR>
0040332D   E9 1EDB0600      JMP GameServ.CQuestInfo::GetQuestInfo
00403332   E9 E96F0800      JMP GameServ.PHeadSetW
00403337   E9 74A20D00      JMP GameServ.gObjDelteItemCountInInvento>
0040333C   E9 AFD50500      JMP GameServ.std::allocator<RINGMONSTER_>
00403341   E9 8A400300      JMP GameServ.CGPShopAnsDealerClosedShop
00403346   E9 95E60600      JMP GameServ.CQuestInfo::QuestClear
0040334B   E9 701A0200      JMP GameServ.GS_DGAnsCsLoadTotalGuildInf>
00403350   E9 DBA01000      JMP GameServ.CChaosCastle::ProcState_Pla>
00403355   E9 F6790800      JMP GameServ.VectorNormalize
0040335A   E9 A1440B00      JMP GameServ.gObjSetPosMonster
0040335F   E9 BC0B0B00      JMP GameServ.gObjSetTradeOption
00403364   E9 77B50300      JMP GameServ.GCKillPlayerExpSend
00403369   E9 02671100      JMP GameServ.std::fill
0040336E   E9 1D870E00      JMP GameServ.BufferItemtoConvert3
00403373   E9 28EF0800      JMP GameServ.std::_Tree<std::basic_strin>
00403378   E9 03F60400      JMP GameServ.NSerialCheck::`scalar delet>
0040337D   E9 DE3A0700      JMP GameServ.WZQueue::GetHeadNode
00403382   E9 E9260700      JMP GameServ.UpdateCompletionPort
00403387   E9 24E20800      JMP GameServ.std::_Tree<std::basic_strin>
0040338C   E9 6F170800      JMP GameServ.std::pair<std::basic_string>
00403391   E9 EA3A0600      JMP GameServ.std::_Tree<int,std::pair<in>
00403396   E9 A5770400      JMP GameServ.CGReqMoneyDrawOut
0040339B   E9 E0BF0F00      JMP GameServ.CGate::`scalar deleting des>
004033A0   E9 DB6F0500      JMP GameServ.BattleSoccerGoalStart
004033A5   E9 D6061200      JMP GameServ.CLargeRand::seedMT
004033AA   E9 713C1100      JMP GameServ.std::vector<tagPOINT,std::a>
004033AF   E9 8C0F0900      JMP GameServ.std::_Tree<int,std::pair<in>
004033B4   E9 87140400      JMP GameServ.CGSetQuestState
004033B9   E9 F28F0400      JMP GameServ.GDGuildDestroyRecv
004033BE   E9 FDD21100      JMP GameServ.std::_Tree<int,std::pair<in>
004033C3   E9 B8170700      JMP GameServ.CStreamPacketEngine_Server:>
004033C8   E9 53F80400      JMP GameServ.CPacketCheckSum::`scalar de>
004033CD   E9 2E180600      JMP GameServ.EGReqRegDLOfflineGift
004033D2   E9 D9D80300      JMP GameServ.CGDurationMagicRecv
004033D7   E9 747B0900      JMP GameServ.CObjUseSkill::GetTargetLine>
004033DC   E9 AF460C00      JMP GameServ.gObjWerehouseRectCheck
004033E1   E9 1A2E0700      JMP GameServ.wsJoinServerCli::`scalar de>
004033E6   E9 55390200      JMP GameServ.ProtocolCore
004033EB   E9 40D90A00      JMP GameServ.TUnionInfo::IsUnionMember
004033F0   E9 3BE11000      JMP GameServ.CChaosCastle::CheckUserEnte>
004033F5   E9 368B1100      JMP GameServ._MAPSVR_DATA::_MAPSVR_DATA
004033FA   E9 F1681100      JMP GameServ.std::_Construct
004033FF   E9 4CBE0D00      JMP GameServ.MakeRewardSetItem
00403404   E9 D7A10600      JMP GameServ.CMagicDamage::SkillGetBP
00403409   E9 92A40400      JMP GameServ.GDGuildScoreUpdateRecv
0040340E   E9 AD9D0000      JMP GameServ.std::_Destroy
00403413   E9 48A60A00      JMP GameServ.std::_Tree<int,std::pair<in>
00403418   E9 238D0500      JMP GameServ.CEledoradoEvent::RegenTitan
0040341D   E9 1E3B0600      JMP GameServ.std::vector<EVENT_ID_TIME,s>
00403422   E9 D9FB1100      JMP GameServ.NpcCastleSwitch
00403427   E9 64DB0800      JMP GameServ.std::map<std::basic_string<>
0040342C   E9 5FAB0600      JMP GameServ.CMagicInf::IsMagic
00403431   E9 FA6C0600      JMP GameServ.CItemBagDropMapInfo::Init
00403436   E9 C5801100      JMP GameServ.CWeapon::WeaponAttackProc
0040343B   E9 50DB0400      JMP GameServ.PBMSG_HEAD::setE
00403440   E9 CB310C00      JMP GameServ.gObjShopBuyInventoryInsertI>
00403445   E9 36BC0D00      JMP GameServ.MakeRandomSetItem
0040344A   E9 81380700      JMP GameServ.WZQueue::Init
0040344F   E9 4C8A1000      JMP GameServ.std::map<int,_MONSTER_ITEM_>
00403454   E9 078A0700      JMP GameServ.CMapItem::CMapItem
00403459   E9 52770800      JMP GameServ._DotProduct
0040345E   E9 6D3C0B00      JMP GameServ.gObjItemTextSave
00403463   E9 D8720000      JMP GameServ.std::map<int,_MONSTER_HERD_>
00403468   E9 93D40A00      JMP GameServ.std::_Construct
0040346D   E9 5EEE0600      JMP GameServ.CwsGameServer::DataSocketSe>
00403472   E9 C93B0F00      JMP GameServ.GMJoinClientMsgProc
00403477   E9 E4290900      JMP GameServ.std::_Tree<std::basic_strin>
0040347C   E9 8F511100      JMP GameServ.std::_Tree<int,std::pair<in>
00403481   E9 0A6C1000      JMP GameServ.CBloodCastle::DropChaosGem
00403486   E9 655B0500      JMP GameServ.std::copy_backward
0040348B   E9 30AD1100      JMP GameServ.std::_Tree<int,std::pair<in>
00403490   E9 EB9F0A00      JMP GameServ.TUnion::GetUnionName
00403495   E9 D6530600      JMP GameServ.std::_Tree<int,std::pair<in>
0040349A   E9 C1C20D00      JMP GameServ.gObjSetExpPetItem
0040349F   E9 BC0E0A00      JMP GameServ.CComboAttack::`scalar delet>
004034A4   E9 57250200      JMP GameServ.JGPExitCodeRecv
004034A9   E9 623D1100      JMP GameServ.std::_Tree<int,std::pair<in>
004034AE   E9 2DDA0A00      JMP GameServ.TUnionInfo::Clear
004034B3   E9 78870400      JMP GameServ.ExDataServerLogin
004034B8   E9 73300800      JMP GameServ.std::_Tree<std::basic_strin>
004034BD   E9 DE1F0800      JMP GameServ.std::_Tree<std::basic_strin>
004034C2   E9 299E0A00      JMP GameServ.TUnion::SetGuildRivalMember>
004034C7   E9 941F0900      JMP GameServ.std::map<int,_GUILD_INFO_ST>
004034CC   E9 BFD31100      JMP GameServ.std::_Tree<int,std::pair<in>
004034D1   E9 2ACD0A00      JMP GameServ.std::_Tree<int,std::pair<in>
004034D6   E9 65940A00      JMP GameServ.CDarkSpirit::MissCheck
004034DB   E9 60130900      JMP GameServ.std::_Tree<int,std::pair<in>
004034E0   E9 8B250800      JMP GameServ.std::_Tree<std::basic_strin>
004034E5   E9 B6C80500      JMP GameServ.std::vector<RINGMONSTER_EVE>
004034EA   E9 31B70800      JMP GameServ.PartyClass::Destroy
004034EF   E9 BC2D1000      JMP GameServ.CBloodCastle::ReleaseCastle>
004034F4   E9 874A1100      JMP GameServ.std::_Tree<int,std::pair<in>
004034F9   E9 A2D60500      JMP GameServ.std::_Destroy
004034FE   E9 6D6D1100      JMP GameServ.CMercenary::CMercenary
00403503   E9 18910300      JMP GameServ.CGWarehouseUseEnd
00403508   E9 D38A0200      JMP GameServ.GCTimeViewSend
0040350D   E9 7E8E1100      JMP GameServ.CMapServerManager::LoadData
00403512   E9 29290700      JMP GameServ.MyWinsockBase::Startup
00403517   E9 54601100      JMP GameServ.std::vector<CHAOSCASTLE_STA>
0040351C   E9 AF7A0700      JMP GameServ.PATH::IsThisSpotOK
00403521   E9 9A8E0600      JMP GameServ.CMagicDamage::LogSkillList
00403526   E9 F5321100      JMP GameServ.std::_Tree<int,std::pair<in>
0040352B   E9 B0720900      JMP GameServ.CObjBaseAttack::MissCheck
00403530   E9 5B160900      JMP GameServ.std::_Tree<int,std::pair<in>
00403535   E9 564C0C00      JMP GameServ.gObjChaosBoxInsertItemPos
0040353A   E9 F1E90D00      JMP GameServ.CJewelMixSystem::~CJewelMix>
0040353F   E9 4C630A00      JMP GameServ.gObjSetItemApply
00403544   E9 F7DB0A00      JMP GameServ.std::copy
00403549   E9 F2D40500      JMP GameServ.std::fill
0040354E   E9 0D760B00      JMP GameServ.gObjIsConnected
00403553   E9 18F90E00      JMP GameServ.CMoveCommand::Init
00403558   E9 D3010800      JMP GameServ.CLoginCount::Add
0040355D   E9 CEDD0800      JMP GameServ.std::map<int,_GUILD_INFO_ST>
00403562   E9 99680600      JMP GameServ.CItemBag::GetType
00403567   E9 F4050900      JMP GameServ.std::_Tree<std::basic_strin>
0040356C   E9 5F571100      JMP GameServ.std::_Tree<int,std::pair<in>
00403571   E9 6A301000      JMP GameServ.CBloodCastle::BlockCastleDo>
00403576   E9 E5FA0700      JMP GameServ.CAcceptIp::IsIp
0040357B   E9 D0FC0900      JMP GameServ.CObjUseSkill::SkillRemoveCl>
00403580   E9 2B6D1100      JMP GameServ.CMercenary::`scalar deletin>
00403585   E9 F61D0500      JMP GameServ.CDevilSquare::ProcOpen
0040358A   E9 A16E0700      JMP GameServ.MapClass::ClearStandAttr
0040358F   E9 9C850500      JMP GameServ.CEledoradoEvent::CEledorado>
00403594   E9 67360200      JMP GameServ.BILL_CLASS::SetBill
00403599   E9 12900000      JMP GameServ.std::_Tree<int,std::pair<in>
0040359E   E9 DD660E00      JMP GameServ.CItem::GetAddStatType
004035A3   E9 38A20C00      JMP GameServ.LevelSmallConvert
004035A8   E9 F32B0400      JMP GameServ.GCPacketCheckSumRecv
004035AD   E9 CE041100      JMP GameServ.CChaosCastle::UnSafetyCastl>
004035B2   E9 69F20A00      JMP GameServ.gObjClearViewportOfMine
004035B7   E9 849F0A00      JMP GameServ.std::map<int,TUnionInfo *,s>
004035BC   E9 4F150200      JMP GameServ.CCastleSiegeSync::SetCastle>
004035C1   E9 1A960D00      JMP GameServ.gUserFindDevilSquareKeyEyes
004035C6   E9 F5AD0800      JMP GameServ.std::basic_string<char,std:>
004035CB   E9 10F61000      JMP GameServ.CChaosCastle::ObjSetPositio>
004035D0   E9 DB750D00      JMP GameServ.gObjAbilityReSet
004035D5   E9 C6690800      JMP GameServ.StrHangulCheck
004035DA   E9 B1CA0D00      JMP GameServ.gObjGetGuildUnionName
004035DF   E9 DC720400      JMP GameServ.CGReqCastleSiegeState
004035E4   E9 37900B00      JMP GameServ.gObjStateAttackProc
004035E9   E9 62B20300      JMP GameServ.GCDamageSend
004035EE   E9 CD830B00      JMP GameServ.gObjPositionCheck
004035F3   E9 88EF0B00      JMP GameServ.gObjCheckSelfDefense
004035F8   E9 638B0800      JMP GameServ.CWZScriptEncode::`scalar de>
004035FD   E9 6E5D0500      JMP GameServ.std::_Unguarded_insert
00403602   E9 79EA0D00      JMP GameServ.CJewelMixSystem::MixJewel
00403607   E9 B42B0700      JMP GameServ.wsJoinServerCli::wsJoinServ>
0040360C   E9 AFCF0A00      JMP GameServ.std::_Tree<int,std::pair<in>
00403611   E9 4A530500      JMP GameServ.std::vector<OBJECTSTRUCT *,>
00403616   E9 85CB0500      JMP GameServ.std::vector<RINGMONSTER_DAT>
0040361B   E9 A03B0F00      JMP GameServ.ExDataClientMsgProc
00403620   E9 DBDC0800      JMP GameServ.std::map<int,_GUILD_INFO_ST>
00403625   E9 76600B00      JMP GameServ.gObjBillRequest
0040362A   E9 A1660500      JMP GameServ.CBattleSoccerManager::CBatt>
0040362F   E9 BCE61100      JMP GameServ.NpcChaosGoblelin
00403634   E9 D7B70A00      JMP GameServ.std::_Tree<int,std::pair<in>
00403639   E9 A20D1100      JMP GameServ.CChaosCastle::CheckUserInDi>
0040363E   E9 FDE80600      JMP GameServ.CwsGameServer::`scalar dele>
00403643   E9 183C1100      JMP GameServ.std::_Tree<int,std::pair<in>
00403648   E9 432B1100      JMP GameServ.std::map<int,_MONSTER_ITEM_>
0040364D   E9 4E560700      JMP GameServ.MapClass::LoadMapAttr
00403652   E9 19760E00      JMP GameServ.CItem::IsExtMonsterDieMana
00403657   E9 54790800      JMP GameServ.AngleMatrix
0040365C   E9 2F730E00      JMP GameServ.CItem::IsExtLifeAdd
00403661   E9 6ADF0800      JMP GameServ.std::_Tree<std::basic_strin>
00403666   E9 F5710000      JMP GameServ.std::_Tree<int,std::pair<in>
0040366B   E9 B0001200      JMP GameServ.CGameServerAuth::GetDataBuf>
00403670   E9 BB4F1100      JMP GameServ.std::_Tree<int,std::pair<in>
00403675   E9 B6D21100      JMP GameServ.std::_Tree<int,std::pair<in>
0040367A   E9 11370800      JMP GameServ.std::_Tree<std::basic_strin>
0040367F   E9 7CE10400      JMP GameServ.FriendMemoList
00403684   E9 172C0700      JMP GameServ.wsJoinServerCli::SetProtoco>
00403689   E9 E26E0B00      JMP GameServ.gObjDel
0040368E   E9 4D270700      JMP GameServ.MyWinsockBase::MyWinsockBas>
00403693   E9 18F60300      JMP GameServ.GCInventoryItemDeleteSend
00403698   E9 B3E00100      JMP GameServ.ItemSerialCreateSend
0040369D   E9 1EB80D00      JMP GameServ.SkillTestFrustrum
004036A2   E9 A96A0700      JMP GameServ.MapClass::GetAttr
004036A7   E9 04761100      JMP GameServ.CWeapon::MissCheck
004036AC   E9 CF570B00      JMP GameServ.BILL_CLASS::Init
004036B1   E9 0AC50400      JMP GameServ.DGRelationShipAnsKickOutUni>
004036B6   E9 C5630E00      JMP GameServ.CItem::PlusSpecialPercentEx
004036BB   E9 70B60600      JMP GameServ.CQuestInfo::~CQuestInfo
004036C0   E9 7BA20A00      JMP GameServ.std::map<int,TUnionInfo *,s>
004036C5   E9 360E0200      JMP GameServ.GS_GDReqCastleNpcInfo
004036CA   E9 01E21100      JMP GameServ.CQeustNpcTeleport::TalkRefA>
004036CF   E9 5C770A00      JMP GameServ.CDarkSpirit::SendAttackMsg
004036D4   E9 F7560500      JMP GameServ.std::allocator<OBJECTSTRUCT>
004036D9   E9 72880800      JMP GameServ.FaceNormalize
004036DE   E9 0DCC0E00      JMP GameServ.CGMMng::`scalar deleting de>
004036E3   E9 789A0800      JMP GameServ.TNotice::SendNoticeToUser
004036E8   E9 83640E00      JMP GameServ.CItem::SetItemPlusSpecialSt>
004036ED   E9 4EA60500      JMP GameServ.CRingAttackEvent::`scalar d>
004036F2   E9 89870400      JMP GameServ.GDGuildCreateSend
004036F7   E9 64CB0E00      JMP GameServ.CGMCommand::CGMCommand
004036FC   E9 8FA10C00      JMP GameServ.gObjMakePreviewCharSet
00403701   E9 2AB00400      JMP GameServ.GDRelationShipReqJoin
00403706   E9 153B0700      JMP GameServ.WZQueue::GetFromQueue
0040370B   E9 60700000      JMP GameServ.std::map<int,_MONSTER_HERD_>
00403710   E9 5BA30600      JMP GameServ.CMagicDamage::GetSkillType
00403715   E9 F6A40400      JMP GameServ.GuildListDlgProc
0040371A   E9 011C0E00      JMP GameServ.CSetItemOption::CheckMixCon>
0040371F   E9 5C2B0200      JMP GameServ.JGAnsMapSvrMove
00403724   E9 87770800      JMP GameServ.ClearBounds
00403729   E9 B2231100      JMP GameServ.CChaosCastle::RewardZettoMo>
0040372E   E9 7D610300      JMP GameServ.CGGuildDelUser
00403733   E9 B8F01100      JMP GameServ.NpcDarkSpiritTrainer
00403738   E9 C3780F00      JMP GameServ.GetEventFlag
0040373D   E9 AE3E0A00      JMP GameServ.GObjExtItemApply
00403742   E9 49BA0500      JMP GameServ.CRingAttackEvent::ProcState>
00403747   E9 74D40500      JMP GameServ.std::_Allocate
0040374C   E9 3F140800      JMP GameServ.std::basic_string<char,std:>
00403751   E9 1A481000      JMP GameServ.CBloodCastle::SetUserState
00403756   E9 05520700      JMP GameServ.MapClass::GetRandomLengthPo>
0040375B   E9 90490700      JMP GameServ.WzUdpRecvThread
00403760   E9 7B290700      JMP GameServ.MyWinsockBase::GetRecvBuffS>
00403765   E9 66470600      JMP GameServ.std::_Tree<int,std::pair<in>
0040376A   E9 21020900      JMP GameServ.std::_Tree<std::basic_strin>
0040376F   E9 FCFE1100      JMP GameServ.CGameServerAuth::GetKey
00403774   E9 A7030400      JMP GameServ.AllSendMsg
00403779   E9 A2260700      JMP GameServ.MyWinsockBase::~MyWinsockBa>
0040377E   E9 2DB60C00      JMP GameServ.gObjViewportListCreate
00403783   E9 18D41100      JMP GameServ.std::_Tree<int,std::pair<in>
00403788   E9 63B21100      JMP GameServ.std::_Tree<int,std::pair<in>
0040378D   E9 DEB70900      JMP GameServ.CObjUseSkill::SkillKnightBl>
00403792   E9 29680500      JMP GameServ.gCheckBattleGroundTimer
00403797   E9 24460500      JMP GameServ.CDevilSquareGround::SortSco>
0040379C   E9 6FA50600      JMP GameServ.CMagicDamage::CheckKillCoun>
004037A1   E9 EA140400      JMP GameServ.CGRequestEnterBloodCastle
004037A6   E9 05FF0700      JMP GameServ.CLoginCount::CLoginCount
004037AB   E9 A0910E00      JMP GameServ.CalRepairRate
004037B0   E9 0B100200      JMP GameServ.GS_DGAnsGuildMarkRegInfo
004037B5   E9 A69C0700      JMP GameServ.CheckDevilSquareItem
004037BA   E9 21811100      JMP GameServ.CCastleSiegeSync::SetCastle>
004037BF   E9 FCEB0600      JMP GameServ.CwsGameServer::DataRecv
004037C4   E9 27550D00      JMP GameServ.gObjMagicAdd
004037C9   E9 120D1000      JMP GameServ.CBloodCastle::CheckQuestIte>
004037CE   E9 6DAE0000      JMP GameServ.CKalimaGate::GetRandomLocat>
004037D3   E9 48870700      JMP GameServ.CMapItem::Init
004037D8   E9 E3C00900      JMP GameServ.CObjUseSkill::SkillSpear
004037DD   E9 4E540800      JMP GameServ.LogAddFunc
004037E2   E9 69F30F00      JMP GameServ.CBloodCastle::ProcState_Pla>
004037E7   E9 44640500      JMP GameServ.CBattleSoccer::SetGoalRight>
004037EC   E9 AF4E1100      JMP GameServ.std::_Tree<int,std::pair<in>
004037F1   E9 9AB90E00      JMP GameServ.CShop::`scalar deleting des>
004037F6   E9 D5500900      JMP GameServ.CObjAttack::GetAttackDamage
004037FB   E9 90290600      JMP GameServ.std::vector<EVENT_ID_TIME,s>
00403800   E9 3B4E0000      JMP GameServ.MonsterHerd::SetTotalInfo
00403805   E9 66600500      JMP GameServ.CBattleGround::SetTeamMaste>
0040380A   E9 61900100      JMP GameServ.CDbSave::`scalar deleting d>
0040380F   E9 FCAE0C00      JMP GameServ.InitFrustrum
00403814   E9 D7D40900      JMP GameServ.CObjUseSkill::SkillElectric>
00403819   E9 025F0800      JMP GameServ.CLogToFile::~CLogToFile
0040381E   E9 8DB31000      JMP GameServ.CChaosCastle::ProcState_Pla>
00403823   E9 18A80F00      JMP GameServ.WndProc
00403828   E9 A3540D00      JMP GameServ.gObjMagicAddEnergyCheckOnOf>
0040382D   E9 2E010900      JMP GameServ.std::_Tree<std::basic_strin>
00403832   E9 B9A20600      JMP GameServ.CMagicDamage::SkillGetRequi>
00403837   E9 A4510300      JMP GameServ.CGPartyDelUser
0040383C   E9 1F130900      JMP GameServ.std::_Tree<int,std::pair<in>
00403841   E9 8A750200      JMP GameServ.GCCloseMsgSend
00403846   E9 F5530100      JMP GameServ.CMonsterAttr::`scalar delet>
0040384B   E9 F0FB1100      JMP GameServ.CGameServerAuth::GetHandle
00403850   E9 DB331000      JMP GameServ.CBloodCastle::SendCastleBri>
00403855   E9 F64D0600      JMP GameServ.std::_Tree<int,std::pair<in>
0040385A   E9 81470800      JMP GameServ.std::char_traits<char>::com>
0040385F   E9 1C410700      JMP GameServ.WzUdp::~WzUdp
00403864   E9 87FE0900      JMP GameServ.classdef::classdef
00403869   E9 F22B0600      JMP GameServ.std::_Tree<int,std::pair<in>
0040386E   E9 9D0A1200      JMP GameServ.TSync::Lock
00403873   E9 68D20500      JMP GameServ.std::_Destroy
00403878   E9 43820D00      JMP GameServ.gObjGuildWarItemGive
0040387D   E9 DEC50500      JMP GameServ.std::vector<RINGMONSTER_EVE>
00403882   E9 390A0200      JMP GameServ.GS_GDReqCastleTributeMoney
00403887   E9 B4910100      JMP GameServ.WZQueue::`scalar deleting d>
0040388C   E9 AF790000      JMP GameServ.std::_Tree<int,std::pair<in>
00403891   E9 FABC0E00      JMP GameServ.CShop::InentoryMapCheck
00403896   E9 055E0600      JMP GameServ.CItemBag::~CItemBag
0040389B   E9 B0D30300      JMP GameServ.TDurMagicKeyChecker::GetVal>
004038A0   E9 8B740E00      JMP GameServ.CItem::IsWingOpGetManaToMos>
004038A5   E9 66580500      JMP GameServ.std::_Sort_0
004038AA   E9 819A1100      JMP GameServ.CMapServerManager::CheckMap>
004038AF   E9 BCDA0800      JMP GameServ.std::_Tree<int,std::pair<in>
004038B4   E9 87E60600      JMP GameServ.CwsGameServer::`scalar dele>
004038B9   E9 62870300      JMP GameServ.CGWarehouseMoneyInOut
004038BE   E9 BD4C1100      JMP GameServ.std::_Tree<int,std::pair<in>
004038C3   E9 58DD0800      JMP GameServ.std::_Tree<std::basic_strin>
004038C8   E9 43621100      JMP GameServ.std::_Destroy
004038CD   E9 0E420800      JMP GameServ.std::_Tree<std::basic_strin>
004038D2   E9 595D0500      JMP GameServ.std::iter_swap
004038D7   E9 24CC0B00      JMP GameServ.gObjAngelSprite
004038DC   E9 1F150200      JMP GameServ._ARGB
004038E1   E9 6A1F0200      JMP GameServ.JGOtherJoin
004038E6   E9 B5120200      JMP GameServ.CCastleSiegeSync::SetTaxHun>
004038EB   E9 60381100      JMP GameServ.std::allocator<tagPOINT>::d>
004038F0   E9 8B560700      JMP GameServ.MapClass::ItemInit
004038F5   E9 96850000      JMP GameServ.std::_Tree<int,std::pair<in>
004038FA   E9 F1051200      JMP GameServ.CMultiCheckSum::~CMultiChec>
004038FF   E9 4CE61100      JMP GameServ.NpcDeviasMadam
00403904   E9 B7391100      JMP GameServ.std::_Tree<int,std::pair<in>
00403909   E9 F2350600      JMP GameServ.std::pair<std::_Tree<int,st>
0040390E   E9 BD2B1000      JMP GameServ.CBloodCastle::ReleaseCastle>
00403913   E9 B85C1100      JMP GameServ.std::vector<CHAOSCASTLE_STA>
00403918   E9 13361100      JMP GameServ.std::vector<CHAOSCASTLE_STA>
0040391D   E9 FE550500      JMP GameServ.std::sort
00403922   E9 C9FA0C00      JMP GameServ.gObjUseDrink
00403927   E9 A40C1200      JMP GameServ.CWzMemScript::GetNumber
0040392C   E9 AF5A1100      JMP GameServ.std::_Tree<int,std::pair<in>
00403931   E9 FA0A0600      JMP GameServ.EGRecvRegStone
00403936   E9 A5DF1000      JMP GameServ.CChaosCastle::LevelUp
0040393B   E9 20580600      JMP GameServ.std::_Tree<int,std::pair<in>
00403940   E9 CBF40500      JMP GameServ.FriendShipItemBoxOpen
00403945   E9 E6530100      JMP GameServ.CMonsterAttr::LoadAttr
0040394A   E9 A12D0D00      JMP GameServ.gObjSkillBeAttackProc
0040394F   E9 0C570500      JMP GameServ.std::_Allocate
00403954   E9 67130600      JMP GameServ.EGAnsRegDLOfflineGift
00403959   E9 62100800      JMP GameServ.std::_Tree<std::basic_strin>
0040395E   E9 ED230500      JMP GameServ.CDevilSquare::gDevilSquareM>
00403963   E9 682E0900      JMP GameServ.CObjAttack::`scalar deletin>
00403968   E9 13770500      JMP GameServ.CDragonEvent::Start_Menual
0040396D   E9 4ED30800      JMP GameServ.CGuildClass::SetServer
00403972   E9 690A0A00      JMP GameServ.CComboAttack::GetSkillPos
00403977   E9 64E30400      JMP GameServ.PWMSG_HEAD::setE
0040397C   E9 5F560200      JMP GameServ.DataSendAll
00403981   E9 FAD10A00      JMP GameServ.TUnionInfo::`scalar deletin>
00403986   E9 C5440800      JMP GameServ.std::basic_string<char,std:>
0040398B   E9 90AE0800      JMP GameServ.PartyClass::GetIndexUser
00403990   E9 FB620200      JMP GameServ.CGChatRecv
00403995   E9 66260700      JMP GameServ.MyWinsockBase::Close
0040399A   E9 F1E90400      JMP GameServ.CMultiAttackHackCheck::~CMu>
0040399F   E9 DC7F0600      JMP GameServ.CMagicDamage::~CMagicDamage
004039A4   E9 87BE1100      JMP GameServ.std::_Tree<int,std::pair<in>
004039A9   E9 82D51000      JMP GameServ.CChaosCastle::ProcessFallUs>
004039AE   E9 FDBA0D00      JMP GameServ.gObjRecall
004039B3   E9 B80B0500      JMP GameServ.CDevilSquare::SetState
004039B8   E9 A3D50500      JMP GameServ.DataSendEventChip
004039BD   E9 CEC61100      JMP GameServ.std::_Tree<int,std::pair<in>
004039C2   E9 59A00A00      JMP GameServ.std::_Tree<int,std::pair<in>
004039C7   E9 14350800      JMP GameServ.std::basic_string<char,std:>
004039CC   E9 3FF30600      JMP GameServ.CWzMultiCastSock::RecvThrea>
004039D1   E9 0A7B0E00      JMP GameServ.CItem::ArmorDurabilityDown
004039D6   E9 05B40300      JMP GameServ.CGMagicAttack
004039DB   E9 E0051200      JMP GameServ.CMultiCheckSum::LoadFile
004039E0   E9 0BCF0D00      JMP GameServ.gObjUnionUpdateProc
004039E5   E9 56C20900      JMP GameServ.CObjUseSkill::SkillFireBurs>
004039EA   E9 41FE0300      JMP GameServ.CDevilSquare::GetState
004039EF   E9 5C661100      JMP GameServ.CGuardian::~CGuardian
004039F4   E9 E7540600      JMP GameServ.std::_Tree<int,std::pair<in>
004039F9   E9 A26F0400      JMP GameServ.GCAnsGuildRegInfo
004039FE   E9 4D100200      JMP GameServ.GS_DGAnsCastleStateSync
00403A03   E9 D8E40D00      JMP GameServ.CJewelMixSystem::`scalar de>
00403A08   E9 A32E0600      JMP GameServ.std::_Tree<int,std::pair<in>
00403A0D   E9 9E030100      JMP GameServ.gObjMonsterBaseAct
00403A12   E9 89870900      JMP GameServ.CObjUseSkill::RunningSkill
00403A17   E9 04540700      JMP GameServ.MapClass::WeatherVariationP>
00403A1C   E9 AF7C0400      JMP GameServ.GCAnsJewelUnMix
00403A21   E9 5A611100      JMP GameServ.std::copy_backward
00403A26   E9 255B0E00      JMP GameServ.CItem::ItemDefense
00403A2B   E9 90260C00      JMP GameServ.gObjInventoryInsertItem
00403A30   E9 CB620500      JMP GameServ.CBattleSoccerManager::`scal>
00403A35   E9 96EF0700      JMP GameServ.LifeStoneChaosMix
00403A3A   E9 61A70600      JMP GameServ.CMagicInf::Set
00403A3F   E9 9C900000      JMP GameServ.std::_Tree<int,std::pair<in>
00403A44   E9 D7D10E00      JMP GameServ.CGMMng::DataSend
00403A49   E9 62180C00      JMP GameServ.gObjInventoryItemBoxSet
00403A4E   E9 0DAC0100      JMP GameServ.JGPGetCharList
00403A53   E9 B8430500      JMP GameServ.CDevilSquareGround::InsertO>
00403A58   E9 53BF0000      JMP GameServ.gObjMonsterTopHitDamageUser
00403A5D   E9 EE581100      JMP GameServ.std::_Tree<int,std::pair<in>
00403A62   E9 B96D0400      JMP GameServ.GCAnsMapSvrAuth
00403A67   E9 B4F80800      JMP GameServ.std::allocator<_GUILD_INFO_>
00403A6C   E9 7F6F0B00      JMP GameServ.gObjIsConnectedGP
00403A71   E9 4A610500      JMP GameServ.CBattleSoccer::GetGoalMove
00403A76   E9 B5700100      JMP GameServ.CMonsterSetBase::CMonsterSe>
00403A7B   E9 F0E01100      JMP GameServ.NpcGuildMasterTalk
00403A80   E9 AB100100      JMP GameServ.gObjTrapAttackEnemySearchY
00403A85   E9 F6A10600      JMP GameServ.CMagicDamage::CheckBrandOfS>
00403A8A   E9 A1E30900      JMP GameServ.CObjUseSkill::SkillKnightRu>
00403A8F   E9 FCC70E00      JMP GameServ.CGMCommand::Init
00403A94   E9 97880200      JMP GameServ.GCItemInventoryPutSend
00403A99   E9 12591100      JMP GameServ.std::_Tree<int,std::pair<in>
00403A9E   E9 7DCC0A00      JMP GameServ.std::allocator<int>::constr>
00403AA3   E9 B8700100      JMP GameServ.CMonsterSetBase::`scalar de>
00403AA8   E9 33F60700      JMP GameServ.CAcceptIp::Load
00403AAD   E9 EE010500      JMP GameServ.CDevilSquare::Load
00403AB2   E9 69520800      JMP GameServ.LogAddFuncColor
00403AB7   E9 14D00400      JMP GameServ.FriendDelRequest
00403ABC   E9 AF6C1000      JMP GameServ.CBloodCastle::CheckMonsterK>
00403AC1   E9 7A730D00      JMP GameServ.gObjTargetGuildWarCheck
00403AC6   E9 C5360800      JMP GameServ.std::_Tree<std::basic_strin>
00403ACB   E9 D0210700      JMP GameServ.ResponErrorCloseClient
00403AD0   E9 7B900900      JMP GameServ.CObjUseSkill::KnightSkillAd>
00403AD5   E9 B6CF0500      JMP GameServ.std::copy_backward
00403ADA   E9 D1CE0A00      JMP GameServ.std::_Destroy
00403ADF   E9 8C060300      JMP GameServ.GCTradeOtherAdd
00403AE4   E9 D7281000      JMP GameServ.CBloodCastle::BlockCastleBr>
00403AE9   E9 F2890800      JMP GameServ.CWZScriptEncode::GetString
00403AEE   E9 4DCC0F00      JMP GameServ.CBloodCastle::~CBloodCastle
00403AF3   E9 887C0E00      JMP GameServ.CItem::CheckDurabilityState
00403AF8   E9 E37C0200      JMP GameServ.CGLevelUpPointAdd
00403AFD   E9 9E700B00      JMP GameServ.gObjIsAccontConnect
00403B02   E9 D9910D00      JMP GameServ.gObjSendUserStatistic
00403B07   E9 04500A00      JMP GameServ.gObjSetItemStatPlusSpecial
00403B0C   E9 AF350800      JMP GameServ.std::basic_string<char,std:>
00403B11   E9 CA040800      JMP GameServ.CConMember::~CConMember
00403B16   E9 95A40B00      JMP GameServ.gObjWarehouseInsertItem
00403B1B   E9 F0CF0300      JMP GameServ.TDurMagicKeyChecker::IsVali>
00403B20   E9 5B210200      JMP GameServ.LoveHeartEventSend
00403B25   E9 F6C51100      JMP GameServ.std::_Tree<int,std::pair<in>
00403B2A   E9 D1FF0300      JMP GameServ.CDevilSquare::GetRemainTime
00403B2F   E9 4C801000      JMP GameServ.CChaosCastle::CChaosCastle
00403B34   E9 87AA0600      JMP GameServ.CSkillDelay::`scalar deleti>
00403B39   E9 222B0200      JMP GameServ.JGAnsMapSvrAuth
00403B3E   E9 AD400800      JMP GameServ.std::pair<std::basic_string>
00403B43   E9 E85D0500      JMP GameServ.CBattleGround::GetTeamName
00403B48   E9 13BF0000      JMP GameServ.gObjMonsterLastHitDamageUse>
00403B4D   E9 AEB01100      JMP GameServ.std::vector<_MAPSVR_DATA *,>
00403B52   E9 E9D50800      JMP GameServ.std::_Tree<std::basic_strin>
00403B57   E9 445F0800      JMP GameServ.CMoveCheck::Insert
00403B5C   E9 CF570800      JMP GameServ.LogTextPaintProc
00403B61   E9 5A930400      JMP GameServ.DGGuildUpdateRecv
00403B66   E9 B5F40600      JMP GameServ.GiocpInit
00403B6B   E9 B0740600      JMP GameServ.CItemBagEx::DropItem
00403B70   E9 FB2D1000      JMP GameServ.CBloodCastle::ReleaseSector
00403B75   E9 D6FB0900      JMP GameServ.classdef::`scalar deleting >
00403B7A   E9 21960800      JMP GameServ.TNotice::AllSendServerMsg
00403B7F   E9 4CEF0400      JMP GameServ.NSerialCheck::GetSendSerial
00403B84   E9 B7CE0800      JMP GameServ.CGuildClass::BuildMemberTot>
00403B89   E9 E2D41100      JMP GameServ.std::_Allocate
00403B8E   E9 0D770900      JMP GameServ.CObjUseSkill::SpeedHackChec>
00403B93   E9 78081200      JMP GameServ.CWzMemScript::`scalar delet>
00403B98   E9 53710F00      JMP GameServ.SetMapName
00403B9D   E9 5EAD0600      JMP GameServ.CSkillHitBox::Check
00403BA2   E9 B9940800      JMP GameServ.TNotice::SetNoticeProperty
00403BA7   E9 A4380700      JMP GameServ.WZQueue::GetCurData
00403BAC   E9 1F341100      JMP GameServ.std::vector<tagPOINT,std::a>
00403BB1   E9 8A3E0800      JMP GameServ.std::allocator<char>::max_s>
00403BB6   E9 E5A20600      JMP GameServ.CMagicInf::CMagicInf
00403BBB   E9 10DE0900      JMP GameServ.CObjUseSkill::SkillImmuneTo>
00403BC0   E9 AB5F0900      JMP GameServ.CObjBaseAttack::`scalar del>
00403BC5   E9 C6500100      JMP GameServ.CMonsterAttr::~CMonsterAttr
00403BCA   E9 718B0B00      JMP GameServ.gObjBackSpring
00403BCF   E9 AC310600      JMP GameServ.std::_Tree<int,std::pair<in>
00403BD4   E9 370A0300      JMP GameServ.GCTradeOkButtonSend
00403BD9   E9 22A90D00      JMP GameServ.gObjDelayLifeCheck
00403BDE   E9 6D770800      JMP GameServ.R_ConcatTransforms
00403BE3   E9 F8B00D00      JMP GameServ.SkillFrustrum
00403BE8   E9 D36E0400      JMP GameServ.CGReqTaxMoneyInfo
00403BED   E9 7E080A00      JMP GameServ.CComboAttack::CheckCombo
00403BF2   E9 A9020A00      JMP GameServ.classdef::GetDefPoint
00403BF7   E9 F4710E00      JMP GameServ.CItem::SimpleDurabilityDown
00403BFC   E9 5FA40B00      JMP GameServ.gObjGiveItemWarehouseSearch
00403C01   E9 9A640600      JMP GameServ.CItemBagAttrEx::CItemBagAtt>
00403C06   E9 65BC0100      JMP GameServ.DataServerGetCharListReques>
00403C0B   E9 90E31100      JMP GameServ.NpcEventChipNPC
00403C10   E9 1BE80800      JMP GameServ.std::map<int,_GUILD_INFO_ST>
00403C15   E9 56050800      JMP GameServ.CConMember::Load
00403C1A   E9 01040900      JMP GameServ.std::_Tree<int,std::pair<in>
00403C1F   E9 9C400800      JMP GameServ.std::_Construct
00403C24   E9 A7C10C00      JMP GameServ.PShop_ViewportListRegenarat>
00403C29   E9 72C00500      JMP GameServ.std::vector<RINGMONSTER_DAT>
00403C2E   E9 DD9D0E00      JMP GameServ.OpenItemScript
00403C33   E9 58860600      JMP GameServ.CMagicDamage::LogSkillNameL>
00403C38   E9 D39E0500      JMP GameServ.CRingMonsterHerd::SendEvent>
00403C3D   E9 7E6E0800      JMP GameServ.VectorMA
00403C42   E9 598E0400      JMP GameServ.GDGuildMemberDelResult
00403C47   E9 74860E00      JMP GameServ.ItemByteConvert
00403C4C   E9 5F4D1100      JMP GameServ.std::allocator<CHAOSCASTLE_>
00403C51   E9 8AA90100      JMP GameServ.DataServerLoginResult
00403C56   E9 B5BF0000      JMP GameServ.gObjMonsterGetTargetPos
00403C5B   E9 308C0D00      JMP GameServ.gObjCheckattackAreaUsedView>
00403C60   E9 6B390500      JMP GameServ.CDevilSquareGround::Set
00403C65   E9 F6FB1000      JMP GameServ.CChaosCastle::SafetyCastleZ>
00403C6A   E9 61361000      JMP GameServ.CBloodCastle::SendNoticeSco>
00403C6F   E9 FC871000      JMP GameServ.CChaosCastle::Load
00403C74   E9 47600300      JMP GameServ.GCGuildMasterQuestionSend
00403C79   E9 B2970000      JMP GameServ.CKalimaGate::CreateKalimaGa>
00403C7E   E9 7DF90400      JMP GameServ.CSendHackLog::Send
00403C83   E9 38DE0900      JMP GameServ.CObjUseSkill::RemoveAllChar>
00403C88   E9 33820200      JMP GameServ.GCEquipmentSend
00403C8D   E9 EEF60F00      JMP GameServ.CBloodCastle::GetCurrentRem>
00403C92   E9 C9A80800      JMP GameServ.std::basic_string<char,std:>
00403C97   E9 14FA1100      JMP GameServ.CGameServerAuth::RequestDat>
00403C9C   E9 3F9C0E00      JMP GameServ.OpenItemNameScript
00403CA1   E9 8A900A00      JMP GameServ.std::map<int,TUnionInfo *,s>
00403CA6   E9 55200900      JMP GameServ.std::_Tree<std::basic_strin>
00403CAB   E9 503D1000      JMP GameServ.CBloodCastle::SearchUserDel>
00403CB0   E9 6B8C0E00      JMP GameServ.GetAllRepairItemRate
00403CB5   E9 36710400      JMP GameServ.CGReqCsSendCommand
00403CBA   E9 B15C1100      JMP GameServ.std::copy
00403CBF   E9 2C4C0500      JMP GameServ.std::vector<OBJECTSTRUCT *,>
00403CC4   E9 972B1100      JMP GameServ.std::_Tree<int,std::pair<in>
00403CC9   E9 42D00400      JMP GameServ.FriendChatRoomCreateReq
00403CCE   E9 FD6B0A00      JMP GameServ.CDarkSpirit::ModeAttackWith>
00403CD3   E9 E8341100      JMP GameServ.std::map<int,_MONSTER_ITEM_>
00403CD8   E9 932B0600      JMP GameServ.std::_Tree<int,std::pair<in>
00403CDD   E9 2E4F0400      JMP GameServ.GCGuildViewportInfo
00403CE2   E9 89AC0C00      JMP GameServ.TestFrustrum2
00403CE7   E9 64770600      JMP GameServ.CItemBagEx::DropKundunEvent>
00403CEC   E9 CF650100      JMP GameServ.CMonsterItemMng::InsertItem
00403CF1   E9 0AC01000      JMP GameServ._MONSTER_ITEM_DROP::_MONSTE>
00403CF6   E9 55250700      JMP GameServ.wsJoinServerCli::~wsJoinSer>
00403CFB   E9 B0750D00      JMP GameServ.gObjGuildWarEndSend
00403D00   E9 EB720A00      JMP GameServ.CDarkSpirit::ReSetTarget
00403D05   E9 46AB1000      JMP GameServ.std::vector<tagPOINT,std::a>
00403D0A   E9 71BB0300      JMP GameServ.CGTargetTeleportRecv
00403D0F   E9 0C020900      JMP GameServ.std::_Tree<std::basic_strin>
00403D14   E9 57CA0400      JMP GameServ.FriendAddResult
00403D19   E9 023E0E00      JMP GameServ.CItem::GetNumber
00403D1E   E9 BD2D0F00      JMP GameServ.GameMonsterAllCloseAndReLoa>
00403D23   E9 08BE0500      JMP GameServ.CRingAttackEvent::End_Menua>
00403D28   E9 73D50200      JMP GameServ.CGBuyRequestRecv
00403D2D   E9 BE7F0200      JMP GameServ.GCMagicListMultiSend
00403D32   E9 59190C00      JMP GameServ.gObjInventoryItemBoxSet_PSh>
00403D37   E9 84250900      JMP GameServ.std::_Destroy
00403D3C   E9 CF050600      JMP GameServ.EGRecvStoneInfo
00403D41   E9 6A110200      JMP GameServ.SProtocolCore
00403D46   E9 157F0700      JMP GameServ.MapClass::CheckWall2
00403D4B   E9 C02F0700      JMP GameServ.WZQueue::~WZQueue
00403D50   E9 EB020900      JMP GameServ.std::_Tree<int,std::pair<in>
00403D55   E9 66F60F00      JMP GameServ.CBloodCastle::CheckEnterLev>
00403D5A   E9 E1FA0700      JMP GameServ.Ccloseplayer::`scalar delet>
00403D5F   E9 3C7E0700      JMP GameServ.PATH::CanWeMoveForward2
00403D64   E9 575F0E00      JMP GameServ.CItem::GetWeaponType
00403D69   E9 92010900      JMP GameServ.std::_Tree<std::basic_strin>
00403D6E   E9 0DBB1100      JMP GameServ.std::_Tree<int,std::pair<in>
00403D73   E9 784F1100      JMP GameServ.std::_Tree<int,std::pair<in>
00403D78   E9 53710400      JMP GameServ.GCAnsSelfCsLeftTimeAlarm
00403D7D   E9 EE840200      JMP GameServ.GCMoneySend
00403D82   E9 595C0E00      JMP GameServ.CItem::PlusSpecialPercent
00403D87   E9 74FE0800      JMP GameServ.std::_Tree<std::basic_strin>
00403D8C   E9 CF0F0200      JMP GameServ.GS_DGAnsCalcREgGuildList
00403D91   E9 FA071200      JMP GameServ.CWzMemScript::SetScriptPars>
00403D96   E9 E5A80800      JMP GameServ.PartyClass::`scalar deletin>
00403D9B   E9 20FE0100      JMP GameServ.GS_GDReqGuildMarkRegInfo
00403DA0   E9 CBF10700      JMP GameServ.CAcceptIp::`scalar deleting>
00403DA5   E9 66480000      JMP GameServ.std::map<int,_MONSTER_HERD_>
00403DAA   E9 F18B0C00      JMP GameServ.gObjTempInventoryInsertItem
00403DAF   E9 0CD20A00      JMP GameServ.std::vector<int,std::alloca>
00403DB4   E9 C7350700      JMP GameServ.WZQueue::StartQ
00403DB9   E9 820D0200      JMP GameServ.CCastleSiegeSync::SetTaxRat>
00403DBE   E9 CD300F00      JMP GameServ.ExDataServerConnect
00403DC3   E9 08730500      JMP GameServ.CDragonEvent::SetMenualStar>
00403DC8   E9 93BD0500      JMP GameServ.std::vector<RINGMONSTER_DAT>
00403DCD   E9 7E301100      JMP GameServ.std::_Tree<int,std::pair<in>
00403DD2   E9 49320500      JMP GameServ.CDevilSquare::CheckInvalidU>
00403DD7   E9 B4A31100      JMP GameServ.std::_Tree<int,std::pair<in>
00403DDC   E9 9FA80600      JMP GameServ.CSkillDelay::Check
00403DE1   E9 CA180300      JMP GameServ.CGPShopAnsClose
00403DE6   E9 A5A20A00      JMP GameServ.std::_Tree<int,std::pair<in>
00403DEB   E9 20510200      JMP GameServ.AllSendServerMsg
00403DF0   E9 FB130C00      JMP GameServ.gObjInventoryItemSet
00403DF5   E9 666E0100      JMP GameServ.CMonsterSetBase::GetBoxPosi>
00403DFA   E9 B1170300      JMP GameServ.CGPShopReqClose
00403DFF   E9 9CCA0A00      JMP GameServ.std::_Destroy
00403E04   E9 67C50800      JMP GameServ.CGuildClass::AddMember
00403E09   E9 22581100      JMP GameServ.std::allocator<CHAOSCASTLE_>
00403E0E   E9 0D1A0500      JMP GameServ.CDevilSquare::ProcPlaying
00403E13   E9 E8F50800      JMP GameServ.std::_Tree<std::basic_strin>
00403E18   E9 D3650100      JMP GameServ.CMonsterItemMng::GetItem
00403E1D   E9 FEFD0400      JMP GameServ.CDevilSquare::Init
00403E22   E9 39110300      JMP GameServ.CGPShopReqOpen
00403E27   E9 54340600      JMP GameServ.std::_Tree<int,std::pair<in>
00403E2C   E9 0F4B0800      JMP GameServ.LogDateChange
00403E31   E9 BA420400      JMP GameServ.GCSendEffectInfo
00403E36   E9 95A51100      JMP GameServ.std::vector<_MAPSVR_DATA *,>
00403E3B   E9 F0C90500      JMP GameServ.std::vector<RINGMONSTER_EVE>
00403E40   E9 BBC10800      JMP GameServ.CGuildClass::ConnectUser
00403E45   E9 46D50F00      JMP GameServ.CBloodCastle::CheckSync
00403E4A   E9 918F0A00      JMP GameServ.TUnion::DelAllUnion
00403E4F   E9 BC6E0600      JMP GameServ.CItemBagEx::GetLevel
00403E54   E9 97480700      JMP GameServ.PATH::~PATH
00403E59   E9 32391000      JMP GameServ.CBloodCastle::CheckUserBrid>
00403E5E   E9 9D6E0800      JMP GameServ._VectorScale
00403E63   E9 88A50C00      JMP GameServ.gObjViewportPaint
00403E68   E9 53BD0800      JMP GameServ.CGuildClass::DeleteGuild
00403E6D   E9 7E030300      JMP GameServ.CGTradeMoneyRecv
00403E72   E9 89690B00      JMP GameServ.gObjSometimeClose
00403E77   E9 64000600      JMP GameServ.EGResultRegEventChip
00403E7C   E9 0F630500      JMP GameServ.gSetBattleTeamMaster
00403E81   E9 4A080600      JMP GameServ.EGRecvRegRingGift
00403E86   E9 557C1100      JMP GameServ.CCastleSiegeSync::ResetTrib>
00403E8B   E9 70A51100      JMP GameServ.std::vector<_MAPSVR_DATA *,>
00403E90   E9 5BC21100      JMP GameServ.std::_Tree<int,std::pair<in>
00403E95   E9 06CA0800      JMP GameServ.CGuildClass::SetGuildType
00403E9A   E9 B1B40300      JMP GameServ.GCStateInfoSend
00403E9F   E9 3C100100      JMP GameServ.NewOptionRand
00403EA4   E9 E7340F00      JMP GameServ.ReadServerInfo
00403EA9   E9 92751100      JMP GameServ.CWeapon::AddWeaponDamagedTa>
00403EAE   E9 3DFC0900      JMP GameServ.classdef::SetEquipment
00403EB3   E9 98AB0000      JMP GameServ.CKalimaGate::DeleteKalimaGa>
00403EB8   E9 C3A91000      JMP GameServ.CChaosCastle::SetMapAttrHol>
00403EBD   E9 4EC20B00      JMP GameServ.gObjPkDownTimeCheck
00403EC2   E9 A9540600      JMP GameServ.std::copy_backward
00403EC7   E9 746B0400      JMP GameServ.CGReqNpcRepair
00403ECC   E9 AFC40100      JMP GameServ.GCItemListSend
00403ED1   E9 4A160E00      JMP GameServ.CSetItemOption::GenSetOptio>
00403ED6   E9 05051200      JMP GameServ.CWzMemScript::CWzMemScript
00403EDB   E9 70490100      JMP GameServ.CQeustNpcTeleport::Run
00403EE0   E9 5BC11000      JMP GameServ.CChaosCastle::SendChaosCast>
00403EE5   E9 867F1000      JMP GameServ._CHAOSCASTLE_DATA::~_CHAOSC>
00403EEA   E9 71F60E00      JMP GameServ.CMoveCommand::Load
00403EEF   E9 4CE10900      JMP GameServ.CObjUseSkill::SkillElfRush
00403EF4   E9 07B80900      JMP GameServ.CObjUseSkill::CalDistance
00403EF9   E9 D2180800      JMP GameServ.std::basic_string<char,std:>
00403EFE   E9 ED010A00      JMP GameServ.CStatMng::~CStatMng
00403F03   E9 A8430400      JMP GameServ.CGRequestPetItemInfo
00403F08   E9 D3241100      JMP GameServ.std::vector<CHAOSCASTLE_STA>
00403F0D   E9 AEA90600      JMP GameServ.CSkillHitBox::Init
00403F12   E9 59D20800      JMP GameServ.std::_Tree<std::basic_strin>
00403F17   E9 948F0B00      JMP GameServ.gObjLevelUp
00403F1C   E9 0F2A0700      JMP GameServ.wsJoinServerCli::DataRecv
00403F21   E9 1AEF0E00      JMP GameServ.CMoveCommand::~CMoveCommand
00403F26   E9 A5FD0E00      JMP GameServ.CMoveCommand::CheckEquipmen>
00403F2B   E9 D0F50400      JMP GameServ.CSendHackLog::CSendHackLog
00403F30   E9 3B800200      JMP GameServ.GCRecallMonLife
00403F35   E9 26F10600      JMP GameServ.GiocpDelete
00403F3A   E9 11C80A00      JMP GameServ.std::allocator<int>::destro>
00403F3F   E9 4CB20E00      JMP GameServ.CShop::`scalar deleting des>
00403F44   E9 57CB0A00      JMP GameServ.TUnionInfo::TUnionInfo
00403F49   E9 028F0000      JMP GameServ.std::_Tree<int,std::pair<in>
00403F4E   E9 8D080800      JMP GameServ.std::basic_string<char,std:>
00403F53   E9 28FC0400      JMP GameServ.CDevilSquare::`scalar delet>
00403F58   E9 230D0200      JMP GameServ.GS_DGAnsResetCastleTaxInfo
00403F5D   E9 BEDD1100      JMP GameServ.NpcRusipher
00403F62   E9 19420800      JMP GameServ.CIpCache::`scalar deleting >
00403F67   E9 E4530400      JMP GameServ.CGRelationShipReqJoinBreakO>
00403F6C   E9 3FB50000      JMP GameServ.gObjMonsterViewportIsCharac>
00403F71   E9 5AD90B00      JMP GameServ.gObjWingDurProc
00403F76   E9 950C0400      JMP GameServ.CQeustNpcTeleport::TalkRefD>
00403F7B   E9 90710F00      JMP GameServ.ReadEventInfo
00403F80   E9 6B490D00      JMP GameServ.gObjPosMagicAttack
00403F85   E9 16530800      JMP GameServ.LogTextClear
00403F8A   E9 41920900      JMP GameServ.CObjUseSkill::SkillDefense
00403F8F   E9 DC5B0900      JMP GameServ.CObjBaseAttack::`scalar del>
00403F94   E9 E7FD0100      JMP GameServ.GS_GDReqRegAttackGuild
00403F99   E9 724C0100      JMP GameServ.CMonsterAttr::CMonsterAttr
00403F9E   E9 6D780D00      JMP GameServ.gObjGuildWarCheck
00403FA3   E9 C8900000      JMP GameServ.std::_Tree<int,std::pair<in>
00403FA8   E9 13150E00      JMP GameServ.CSetItemOption::GenRandomIt>
00403FAD   E9 8EF00100      JMP GameServ.gObjSavePetItemInfo
00403FB2   E9 69B00800      JMP GameServ.PartyClass::GetPartyCount
00403FB7   E9 34770800      JMP GameServ.VectorIRotate
00403FBC   E9 3F600100      JMP GameServ.CMonsterItemMng::`scalar de>
00403FC1   E9 DA0E0E00      JMP GameServ.CSetItemOption::GetMaxSetOp>
00403FC6   E9 25F00700      JMP GameServ.CAcceptIp::Init
00403FCB   E9 10B20E00      JMP GameServ.CShop::~CShop
00403FD0   E9 4BBE0500      JMP GameServ.std::vector<RINGMONSTER_EVE>
00403FD5   E9 562F0B00      JMP GameServ.ItemIsBufExOption
00403FDA   E9 81DE1100      JMP GameServ.NpcPosionGirl
00403FDF   E9 7C3E1100      JMP GameServ.std::_Tree<int,std::pair<in>
00403FE4   E9 37EC0400      JMP GameServ.CPacketCheckSum::`scalar de>
00403FE9   E9 02570500      JMP GameServ.CBattleGround::`scalar dele>
00403FEE   E9 4D210700      JMP GameServ.MyWinsockBase::SetConnect
00403FF3   E9 B8F20800      JMP GameServ.std::_Tree<int,std::pair<in>
00403FF8   E9 73260800      JMP GameServ.std::_Tree<std::basic_strin>
00403FFD   E9 6E870300      JMP GameServ.GCWarehouseStateSend
00404002   E9 99320C00      JMP GameServ.gObjInventoryRectCheck
00404007   E9 44A81100      JMP GameServ.std::_Tree<int,std::pair<in>
0040400C   E9 DF7E0700      JMP GameServ.CMapItem::~CMapItem
00404011   E9 EAC90A00      JMP GameServ.std::_Distance
00404016   E9 05E11100      JMP GameServ.NpcRoadMerchant
0040401B   E9 90CD0C00      JMP GameServ.gObjSetState
00404020   E9 0B6E1000      JMP GameServ.CBloodCastle::GetWhoGotUlti>
00404025   E9 06EA0400      JMP GameServ.NSerialCheck::InCheck
0040402A   E9 41EF0F00      JMP GameServ.CBloodCastle::SetState_Play>
0040402F   E9 5C830700      JMP GameServ.ChaosBoxInit
00404034   E9 77010200      JMP GameServ.GS_GDReqNpcRemove
00404039   E9 C2B30F00      JMP GameServ.CGate::Init
0040403E   E9 0D4A0700      JMP GameServ.MapClass::GetMapPos
00404043   E9 B8C20D00      JMP GameServ.gObjNotifyUpdateUnionV1
00404048   E9 93750400      JMP GameServ.CGReqJewelMix
0040404D   E9 3E540500      JMP GameServ.std::_Median
00404052   E9 19A51100      JMP GameServ.std::_Tree<int,std::pair<in>
00404057   E9 04930600      JMP GameServ.CMagicDamage::Get
0040405C   E9 FF5A0500      JMP GameServ.CBattleSoccer::~CBattleSocc>
00404061   E9 CA210400      JMP GameServ.GCNPggCheckSumRecv
00404066   E9 35090600      JMP GameServ.EGReqRegCCOfflineGift
0040406B   E9 106B0A00      JMP GameServ.CDarkSpirit::RangeAttack
00404070   E9 FB5E0A00      JMP GameServ.gObjValidItem
00404075   E9 86940600      JMP GameServ.CMagicDamage::SkillGetMana
0040407A   E9 41040200      JMP GameServ.PBMSG_HEAD::set
0040407F   E9 BC3E0400      JMP GameServ.GCSendGetItemInfoForParty
00404084   E9 C7560800      JMP GameServ.CLogToFile::Output
00404089   E9 E23C0800      JMP GameServ.std::pair<std::basic_string>
0040408E   E9 5D190800      JMP GameServ.std::map<std::basic_string<>
00404093   E9 48040400      JMP GameServ.GCUseRenaChangeZenRecv
00404098   E9 F3890100      JMP GameServ.CDbSave::Add
0040409D   E9 5E2D1100      JMP GameServ.std::_Tree<int,std::pair<in>
004040A2   E9 99500B00      JMP GameServ.gObjAddMonster
004040A7   E9 04CE1100      JMP GameServ.std::allocator<_MAPSVR_DATA>
004040AC   E9 9FB20F00      JMP GameServ.CGate::CGate
004040B1   E9 CAFA0400      JMP GameServ.CDevilSquare::`scalar delet>
004040B6   E9 55F10D00      JMP GameServ.CSetItemOption::`scalar del>
004040BB   E9 206D0100      JMP GameServ.CMonsterSetBase::GetPositio>
004040C0   E9 5B3C1100      JMP GameServ.std::_Tree<int,std::pair<in>
004040C5   E9 16960D00      JMP GameServ.gObjGetStatPointState
004040CA   E9 010B0900      JMP GameServ.std::pair<std::_Tree<std::b>
004040CF   E9 6C2A1100      JMP GameServ.std::_Tree<int,std::pair<in>
004040D4   E9 676A0000      JMP GameServ.std::_Tree<int,std::pair<in>
004040D9   E9 A2A21100      JMP GameServ.std::vector<_MAPSVR_DATA *,>
004040DE   E9 0DCB0400      JMP GameServ.FriendDelResult
004040E3   E9 186A0400      JMP GameServ.CGReqTaxRateChange
004040E8   E9 D3D10800      JMP GameServ.std::map<int,_GUILD_INFO_ST>
004040ED   E9 FE6E0400      JMP GameServ.CGReqCsRegGuildList
004040F2   E9 495B0400      JMP GameServ.CCastleSiegeSync::GetCastle>
004040F7   E9 E4530800      JMP GameServ.LogGetFileName
004040FC   E9 2F6F0400      JMP GameServ.CGReqWeaponUse
00404101   E9 0A460700      JMP GameServ.MapNumberCheck
00404106   E9 E57C0400      JMP GameServ.GDCharCloseRecv
0040410B   E9 60200200      JMP GameServ.GJReqMapSvrMove
00404110   E9 4B050300      JMP GameServ.CGTradeOkButtonRecv
00404115   E9 C6011200      JMP GameServ.TSync::~TSync
0040411A   E9 51771100      JMP GameServ.CCastleSiegeSync::Clear
0040411F   E9 EC451100      JMP GameServ.std::vector<CHAOSCASTLE_STA>
00404124   E9 C7C50F00      JMP GameServ.CBloodCastle::`scalar delet>
00404129   E9 72990900      JMP GameServ.CObjUseSkill::SkillMonsterC>
0040412E   E9 DDA91100      JMP GameServ.std::_Tree<int,std::pair<in>
00404133   E9 48CE1100      JMP GameServ.std::_Destroy
00404138   E9 03610000      JMP GameServ.MonsterHerd::MonsterRegenAc>
0040413D   E9 8EF80100      JMP GameServ.GS_GDReqTaxRateChange
00404142   E9 B94A0000      JMP GameServ.MonsterHerd::SetPosition
00404147   E9 B4F81100      JMP GameServ.CLargeRand::`scalar deletin>
0040414C   E9 5FC11100      JMP GameServ.std::vector<_MAPSVR_DATA *,>
00404151   E9 AA1F0500      JMP GameServ.CDevilSquare::DieProcDevilS>
00404156   E9 551B0500      JMP GameServ.CDevilSquare::ClearMonstr
0040415B   E9 E0A10900      JMP GameServ.CObjUseSkill::SkillPowerSla>
00404160   E9 8B580500      JMP GameServ.CBattleGround::SetTimer
00404165   E9 A6C80D00      JMP GameServ._GUILD_INFO_STRUCT::CheckTi>
0040416A   E9 F1AD1000      JMP GameServ.CChaosCastle::SetState_Play>
0040416F   E9 3C730A00      JMP GameServ.CDarkSpirit::Attack
00404174   E9 C7E00900      JMP GameServ.CObjUseSkill::SkillMagumDea>
00404179   E9 52570500      JMP GameServ.CBattleGround::SetTeamName
0040417E   E9 7D700500      JMP GameServ.CAttackEvent::~CAttackEvent
00404183   E9 D8BF0F00      JMP GameServ.CGate::GetLevel
00404188   E9 83EC0F00      JMP GameServ.CBloodCastle::SetState_Clos>
0040418D   E9 3E6D0900      JMP GameServ.CObjUseSkill::`scalar delet>
00404192   E9 49C00F00      JMP GameServ.CGate::IsInGate
00404197   E9 84EB0100      JMP GameServ.DGRecvPetItemInfo
0040419C   E9 AF5C0600      JMP GameServ.CItemBag::GetIndex
004041A1   E9 1AC40200      JMP GameServ.GCEquipmentChange
004041A6   E9 85B00800      JMP GameServ.PartyClass::PartyMemberLife>
004041AB   E9 50E60B00      JMP GameServ.gObjTimeCheckSelfDefense
004041B0   E9 0B9B0A00      JMP GameServ.std::_Tree<int,std::pair<in>
004041B5   E9 A6FE0800      JMP GameServ.std::_Tree<int,std::pair<in>
004041BA   E9 01090800      JMP GameServ.std::_Tree<std::basic_strin>
004041BF   E9 4C3C0700      JMP GameServ.WzUdp::MuProtocolParse
004041C4   E9 37420200      JMP GameServ.TestSend
004041C9   E9 B2050200      JMP GameServ.GS_DGAnsCastleMoneyChange
004041CE   E9 4DBF0500      JMP GameServ.std::vector<RINGMONSTER_EVE>
004041D3   E9 68A60600      JMP GameServ.CSkillHitBox::`scalar delet>
004041D8   E9 53920600      JMP GameServ.CMagicDamage::SkillGet
004041DD   E9 6E071000      JMP GameServ.CBloodCastle::SetMonster
004041E2   E9 D9950A00      JMP GameServ.std::_Tree<int,std::pair<in>
004041E7   E9 14211100      JMP GameServ.std::_Tree<int,std::pair<in>
004041EC   E9 2FDE1100      JMP GameServ.NpcQuestCheck
004041F1   E9 DA6B0400      JMP GameServ.CGReqStopCsMiniMapData
004041F6   E9 65E41100      JMP GameServ.NpcAngelMessanger
004041FB   E9 F00C0700      JMP GameServ.CStreamPacketEngine_Server:>
00404200   E9 CBB10F00      JMP GameServ.CGate::~CGate
00404205   E9 86220F00      JMP GameServ.GetWarehouseUsedHowMuch
0040420A   E9 F1C00A00      JMP GameServ.std::vector<int,std::alloca>
0040420F   E9 2CA20400      JMP GameServ.DGGuildAnsAssignType
00404214   E9 775B0800      JMP GameServ.SQLSyntexCheckConvert
00404219   E9 92D40100      JMP GameServ.GDSetWarehouseMoney
0040421E   E9 CDF20000      JMP GameServ.PathFindMoveMsgSend
00404223   E9 28390700      JMP GameServ.WzUdp::SendSet
00404228   E9 E37A1100      JMP GameServ.CCastleSiegeSync::CheckOver>
0040422D   E9 FE691000      JMP GameServ.CBloodCastle::CheckAngelKin>
00404232   E9 89EF0400      JMP GameServ.CPacketCheckSum::SetClearCh>
00404237   E9 44241100      JMP GameServ.std::vector<tagPOINT,std::a>
0040423C   E9 8F6A0E00      JMP GameServ.CItem::IsWingOpGetOnePercen>
00404241   E9 AA0C0700      JMP GameServ.CStreamPacketEngine_Server:>
00404246   E9 75010400      JMP GameServ.GCUseEndEventChipRescv
0040424B   E9 105D0500      JMP GameServ.gCheckBlankBattleGround
00404250   E9 1B4C0000      JMP GameServ.MonsterHerd::GetMonsterData
00404255   E9 16950500      JMP GameServ.CRingMonsterHerd::MonsterHe>
0040425A   E9 F14B0800      JMP GameServ.LogAddTimeDateFunc
0040425F   E9 ACEF0D00      JMP GameServ.CSetItemOption::`scalar del>
00404264   E9 A7620700      JMP GameServ.MapClass::PathFinding2
00404269   E9 E2F50400      JMP GameServ.DataSendRank
0040426E   E9 4D670400      JMP GameServ.CGReqRegGuildMark
00404273   E9 88860100      JMP GameServ.CDbSave::Initialize
00404278   E9 23CC0800      JMP GameServ.std::map<std::basic_string<>
0040427D   E9 CEA10800      JMP GameServ.std::basic_string<char,std:>
00404282   E9 29B40500      JMP GameServ.CRingAttackEvent::SetState_>
00404287   E9 14001200      JMP GameServ.TSync::TSync
0040428C   E9 4F190900      JMP GameServ.std::_Tree<int,std::pair<in>
00404291   E9 6A980100      JMP GameServ.TestDSSend
00404296   E9 25B70800      JMP GameServ.CGuildClass::AddTail
0040429B   E9 E0BB0400      JMP GameServ.FriendListRequest
004042A0   E9 5B520000      JMP GameServ.MonsterHerd::CheckInRadius
004042A5   E9 068C0000      JMP GameServ.std::_Tree<int,std::pair<in>
004042AA   E9 918F0A00      JMP GameServ.TUnion::SetGuildUnionMember>
004042AF   E9 BC990400      JMP GameServ.DGGuildListState
004042B4   E9 475D0100      JMP GameServ.CMonsterItemMng::`scalar de>
004042B9   E9 A25E0600      JMP GameServ.CItemBagEx::`scalar deletin>
004042BE   E9 6DC50000      JMP GameServ.gObjGuardSearchEnemy
004042C3   E9 C8850E00      JMP GameServ.ItemGetAttackDurability
004042C8   E9 43850C00      JMP GameServ.gObjTempInventoryItemBoxSet
004042CD   E9 0EE10600      JMP GameServ.CwsGameServer::SetSocketBuf>
004042D2   E9 B9700E00      JMP GameServ.CItem::StaffWeaponDurabilit>
004042D7   E9 74290F00      JMP GameServ.GMJoinServerConnect
004042DC   E9 8F820700      JMP GameServ.ChaosBoxItemDown
004042E1   E9 6AE31000      JMP GameServ.CChaosCastle::CheckCanStart>
004042E6   E9 75C10A00      JMP GameServ.std::_Tree<int,std::pair<in>
004042EB   E9 80420000      JMP GameServ.MonsterHerd::`scalar deleti>
004042F0   E9 DBD60000      JMP GameServ.gObjMonsterProcess
004042F5   E9 C6B20A00      JMP GameServ.std::_Tree<int,std::pair<in>
004042FA   E9 B17D0B00      JMP GameServ.gObjAddAttackProcMsgSendDel>
004042FF   E9 CC6F0000      JMP GameServ.std::_Tree<int,std::pair<in>
00404304   E9 67100900      JMP GameServ.std::_Tree<std::basic_strin>
00404309   E9 92510B00      JMP GameServ.gObjAllDisconnect
0040430E   E9 ADEE0600      JMP GameServ.CreateListenSocket
00404313   E9 28E80300      JMP GameServ.GCReFillSend
00404318   E9 538C0100      JMP GameServ.DBSockMng::Connect
0040431D   E9 FE200600      JMP GameServ.std::map<int,void *,std::le>
00404322   E9 C9EA0E00      JMP GameServ.CMoveCommand::`scalar delet>
00404327   E9 241F0600      JMP GameServ.std::vector<EVENT_ID_TIME,s>
0040432C   E9 2F631100      JMP GameServ.CWeapon::CWeapon
00404331   E9 DAB70F00      JMP GameServ.CGate::Load
00404336   E9 35771100      JMP GameServ.CCastleSiegeSync::AddTribut>
0040433B   E9 70BC1000      JMP GameServ.CChaosCastle::SendAllUserAn>
00404340   E9 3B501100      JMP GameServ.std::_Tree<int,std::pair<in>
00404345   E9 76160800      JMP GameServ.std::less<std::basic_string>
0040434A   E9 D1380700      JMP GameServ.WzUdp::SetProtocolCore
0040434F   E9 9C3C0600      JMP GameServ.std::_Tree<int,std::pair<in>
00404354   E9 27C60500      JMP GameServ.std::copy
00404359   E9 82CB0800      JMP GameServ.std::map<std::basic_string<>
0040435E   E9 7D570F00      JMP GameServ.LoadItemBag
00404363   E9 E8880A00      JMP GameServ.TUnion::TUnion
00404368   E9 33CA0600      JMP GameServ.CQuestInfo::ReSetQuestState
0040436D   E9 1E790500      JMP GameServ.CEledoradoEvent::Run
00404372   E9 B96A0200      JMP GameServ.CGClientMsg
00404377   E9 24CE0800      JMP GameServ.std::_Tree<std::basic_strin>
0040437C   E9 7F050300      JMP GameServ.CGTradeResult
00404381   E9 EAFC0900      JMP GameServ.CStatMng::CStatMng
00404386   E9 45510600      JMP GameServ.std::_Destroy
0040438B   E9 F0210900      JMP GameServ.CViewportGuild::Init
00404390   E9 2BA70300      JMP GameServ.GCActionSend
00404395   E9 06D91100      JMP GameServ.NpcRolensiaGuard
0040439A   E9 51A91100      JMP GameServ.std::allocator<_MAPSVR_DATA>
0040439F   E9 8C680E00      JMP GameServ.CItem::IsExtMonsterDieLife
004043A4   E9 E7CE0D00      JMP GameServ.gObjUseBlessAndSoulPotion
004043A9   E9 D2720400      JMP GameServ.CGReqJewelUnMix
004043AE   E9 AD9B0600      JMP GameServ.CMagicInf::Clear
004043B3   E9 68930C00      JMP GameServ.LevelSmallConvert
004043B8   E9 83510800      JMP GameServ.MsgBox
004043BD   E9 3EA70500      JMP GameServ.CRingAttackEvent::CheckSync
004043C2   E9 59F70100      JMP GameServ.GS_GDReqSiegeDateChange
004043C7   E9 649B1100      JMP GameServ.std::map<int,_MAPSVR_DATA *>
004043CC   E9 CFC10B00      JMP GameServ.gObjSatanSprite
004043D1   E9 3A300C00      JMP GameServ.gObjOnlyInventoryRectCheck
004043D6   E9 958C0C00      JMP GameServ.gObjTradeOkButton
004043DB   E9 A0FA0E00      JMP GameServ.CMoveCommand::CheckInterfac>
004043E0   E9 CBFE0E00      JMP GameServ.GetKalimaGateLevel
004043E5   E9 C6F70300      JMP GameServ.AllSendSameMapMsg
004043EA   E9 313A0300      JMP GameServ.CGPartyRequestResultRecv
004043EF   E9 3C2F0600      JMP GameServ.std::_Tree<int,std::pair<in>
004043F4   E9 17600300      JMP GameServ.GCGuildViewportDelNow
004043F9   E9 42700D00      JMP GameServ.gObjGuildWarEnd
004043FE   E9 ED3F0800      JMP GameServ.CIpCache::DelIp
00404403   E9 88510500      JMP GameServ.std::_Unguarded_partition
00404408   E9 33741100      JMP GameServ.CCastleSiegeSync::~CCastleS>
0040440D   E9 5E1B0900      JMP GameServ.std::_Tree<int,std::pair<in>
00404412   E9 49060600      JMP GameServ.EGAnsRegCCOfflineGift
00404417   E9 34340800      JMP GameServ.std::_Tree<std::basic_strin>
0040441C   E9 7F290700      JMP GameServ.WZQueue::AddTail
00404421   E9 9AC10700      JMP GameServ.DevilSquareItemChaosMix
00404426   E9 95040500      JMP GameServ.CDevilSquare::GetUserLevelT>
0040442B   E9 F0CB0500      JMP GameServ.EledoradoBoxOpenEven
00404430   E9 3BC61000      JMP GameServ.CChaosCastle::EnterUserChao>
00404435   E9 A61E0900      JMP GameServ.std::_Destroy
0040443A   E9 21550800      JMP GameServ.CMoveCheck::CMoveCheck
0040443F   E9 CCF30700      JMP GameServ.Ccloseplayer::Ccloseplayer
00404444   E9 B7100F00      JMP GameServ.GameMainInit
00404449   E9 52FA1100      JMP GameServ.CMultiCheckSum::`scalar del>
0040444E   E9 7D580800      JMP GameServ.BuxConvert
00404453   E9 D8460500      JMP GameServ.std::vector<OBJECTSTRUCT *,>
00404458   E9 33230700      JMP GameServ.wsJoinServerCli::FDWRITE_Ms>
0040445D   E9 5E410D00      JMP GameServ.gObjMoveDataLoadingOK
00404462   E9 89FC0A00      JMP GameServ.IsOnDuel
00404467   E9 F4A10D00      JMP GameServ.gObjDuelCheck
0040446C   E9 AFBD0E00      JMP GameServ.CGMMng::CGMMng
00404471   E9 BADE0000      JMP GameServ.gObjMonsterMagicAttack
00404476   E9 35B30400      JMP GameServ.GDUnionListSend
0040447B   E9 E0C90800      JMP GameServ.std::map<std::basic_string<>
00404480   E9 BB8F0500      JMP GameServ.CEledoradoEvent::CheckGoldD>
00404485   E9 76751100      JMP GameServ.CCastleSiegeSync::GetTaxHun>
0040448A   E9 91670400      JMP GameServ.GCAnsCsAccessCrownState
0040448F   E9 FC0C0200      JMP GameServ.JGServerLoginResult
00404494   E9 A7270700      JMP GameServ.WZQueue::WZQueue
00404499   E9 82830100      JMP GameServ.CDbSave::CDbSave
0040449E   E9 8DDE0900      JMP GameServ.CObjUseSkill::SkillDarklord>
004044A3   E9 C8FB0A00      JMP GameServ.IsDuelEnable
004044A8   E9 23050200      JMP GameServ.GS_DGAnsRegGuildMark
004044AD   E9 BE930C00      JMP GameServ.gObjAttackDamageCalc
004044B2   E9 C9521100      JMP GameServ.std::_Tree<int,std::pair<in>
004044B7   E9 E4410700      JMP GameServ.PATH::`scalar deleting dest>
004044BC   E9 7F5D0100      JMP GameServ.CMonsterItemMng::Clear
004044C1   E9 4A2E0600      JMP GameServ.std::_Tree<int,std::pair<in>
004044C6   E9 B5C10D00      JMP GameServ.gObjNotifyUpdateUnionV2
004044CB   E9 A08A1000      JMP GameServ.CChaosCastle::ProcState_Non>
004044D0   E9 6BD00800      JMP GameServ.std::map<std::basic_string<>
004044D5   E9 36660E00      JMP GameServ.CItem::IsExtExcellentDamage
004044DA   E9 D1720800      JMP GameServ.VectorTranslate
004044DF   E9 1C390800      JMP GameServ.std::basic_string<char,std:>
004044E4   E9 C76C0500      JMP GameServ.CAttackEvent::`scalar delet>
004044E9   E9 62AF0300      JMP GameServ.CGTeleportRecv
004044EE   E9 6D810E00      JMP GameServ.ItemGetSize
004044F3   E9 88580500      JMP GameServ.InitBattleSoccer
004044F8   E9 F34E0600      JMP GameServ.std::swap
004044FD   E9 2E500B00      JMP GameServ.gObjTradeSave
00404502   E9 B9C90600      JMP GameServ.CQuestInfo::GetSubquestInfo
00404507   E9 B4440200      JMP GameServ.CGCheckMainRecv
0040450C   E9 DFF31100      JMP GameServ.CLargeRand::randomMT
00404511   E9 9A770400      JMP GameServ.GDCharClose
00404516   E9 25010200      JMP GameServ.GS_GDReqCsLoadTotalGuildInf>
0040451B   E9 A0830100      JMP GameServ.CDbSave::~CDbSave
00404520   E9 AB9A0600      JMP GameServ.GetSkillNumberInex
00404525   E9 26BD1100      JMP GameServ.std::_Tree<int,std::pair<in>
0040452A   E9 11E80400      JMP GameServ.CPacketCheckSum::Check
0040452F   E9 6C040400      JMP GameServ.CGCloseWindow
00404534   E9 07810000      JMP GameServ.std::_Tree<int,std::pair<in>
00404539   E9 72A60800      JMP GameServ.PartyClass::GetLevel
0040453E   E9 8DC80A00      JMP GameServ.TUnionInfo::IsRivalMember
00404543   E9 F8A20600      JMP GameServ.CSkillHitBox::`scalar delet>
00404548   E9 43F30700      JMP GameServ.Ccloseplayer::~Ccloseplayer
0040454D   E9 FEC80E00      JMP GameServ.CGMMng::ManagementProc
00404552   E9 594A0500      JMP GameServ.std::fill
00404557   E9 64480400      JMP GameServ.CGGuildAssignStatus
0040455C   E9 CF281100      JMP GameServ.std::_Tree<int,std::pair<in>
00404561   E9 1A890000      JMP GameServ.std::_Tree<int,std::pair<in>
00404566   E9 C5B60A00      JMP GameServ.std::_Tree<int,std::pair<in>
0040456B   E9 60750B00      JMP GameServ.ExtentCheck
00404570   E9 1B480B00      JMP GameServ.gObjAddSearch
00404575   E9 86020200      JMP GameServ.GS_DGAnsCastleOwnerChange
0040457A   E9 B19C1100      JMP GameServ.std::_Tree<int,std::pair<in>
0040457F   E9 7CB90A00      JMP GameServ.std::_Tree<int,std::pair<in>
00404584   E9 47F60400      JMP GameServ.CDevilSquare::~CDevilSquare
00404589   E9 02B51000      JMP GameServ.CChaosCastle::GetMonsterLis>
0040458E   E9 FD750E00      JMP GameServ.ItemByteConvert7
00404593   E9 083D0A00      JMP GameServ.gObjGetSetItemOption
00404598   E9 83CA1100      JMP GameServ.std::copy_backward
0040459D   E9 BE8D0000      JMP GameServ.CKalimaGate::CKalimaGate
004045A2   E9 29640E00      JMP GameServ.CItem::IsExtManaAdd
004045A7   E9 54F10700      JMP GameServ.CLoginCount::Init
004045AC   E9 2FE40600      JMP GameServ.CWzMultiCastSock::ReStartMu>
004045B1   E9 EA830600      JMP GameServ.CMagicDamage::LogSkillNameL>
004045B6   E9 75B50800      JMP GameServ.CGuildClass::AllDelete
004045BB   E9 001C1100      JMP GameServ.std::map<int,_MONSTER_ITEM_>
004045C0   E9 0B5A0100      JMP GameServ.CMonsterItemMng::CMonsterIt>
004045C5   E9 D6FF0800      JMP GameServ.std::_Tree<int,std::pair<in>
004045CA   E9 71740800      JMP GameServ.QuaternionMatrix
004045CF   E9 BC090800      JMP GameServ.std::_Tree<std::basic_strin>
004045D4   E9 77EF0200      JMP GameServ.CGTradeResponseRecv
004045D9   E9 22060E00      JMP GameServ.CSetItemOption::GetSetOptio>
004045DE   E9 8D940500      JMP GameServ.CRingMonsterHerd::MonsterAt>
004045E3   E9 58AB1000      JMP GameServ.CChaosCastle::ClearChaosCas>
004045E8   E9 F3E20C00      JMP GameServ.gObjManaPotionFill
004045ED   E9 BE400D00      JMP GameServ.gObjGetMagicSearch
004045F2   E9 A9400600      JMP GameServ.std::_Tree<int,std::pair<in>
004045F7   E9 24920A00      JMP GameServ.std::_Tree<int,std::pair<in>
004045FC   E9 0F720800      JMP GameServ.VectorTransform
00404601   E9 4ADE0400      JMP GameServ.CMultiAttackHackCheck::Inse>
00404606   E9 95B90A00      JMP GameServ.std::_Tree<int,std::pair<in>
0040460B   E9 20DB0400      JMP GameServ._GUILD_INFO_STRUCT::SetGuil>
00404610   E9 8B070200      JMP GameServ.GS_DGAnsCsSaveTotalGuildInf>
00404615   E9 86E51000      JMP GameServ.CChaosCastle::GetCurrentRem>
0040461A   E9 B1690400      JMP GameServ.CGReqNpcDbList
0040461F   E9 8C250500      JMP GameServ.CDevilSquare::gObjMonsterSc>
00404624   E9 17BC0D00      JMP GameServ.gObjGetRelationShip
00404629   E9 62B80500      JMP GameServ.std::vector<RINGMONSTER_EVE>
0040462E   E9 AD491100      JMP GameServ.std::_Tree<int,std::pair<in>
00404633   E9 888C0B00      JMP GameServ.gObjLevelUpPointAdd
00404638   E9 A3650400      JMP GameServ.GCAnsCsGateCurState
0040463D   E9 7E920A00      JMP GameServ.std::vector<int,std::alloca>
00404642   E9 89140800      JMP GameServ.std::_Tree<std::basic_strin>
00404647   E9 54CE0800      JMP GameServ.std::_Tree<int,std::pair<in>
0040464C   E9 4FF10900      JMP GameServ.DEFAULTCLASSTYPE::DEFAULTCL>
00404651   E9 3AC20400      JMP GameServ.WaitFriendAddRequest
00404656   E9 55790000      JMP GameServ.std::_Tree<int,std::pair<in>
0040465B   E9 40160C00      JMP GameServ.gObjInventoryInsertItem
00404660   E9 5B3F0000      JMP GameServ.MonsterHerd::~MonsterHerd
00404665   E9 969F0B00      JMP GameServ.gObjAttackQ
0040466A   E9 41BC0A00      JMP GameServ.std::vector<int,std::alloca>
0040466F   E9 3CA60800      JMP GameServ.PartyClass::Add
00404674   E9 A7940400      JMP GameServ.DGGuildList
00404679   E9 32611100      JMP GameServ.CWeapon::`scalar deleting d>
0040467E   E9 DD1C0C00      JMP GameServ.gObjSearchItem
00404683   E9 C8B00800      JMP GameServ.std::map<int,_GUILD_INFO_ST>
00404688   E9 03030200      JMP GameServ.CMapServerManager::GetMapSv>
0040468D   E9 CEE40B00      JMP GameServ.gObjMonsterExpSingle
00404692   E9 690D0900      JMP GameServ.std::_Tree<std::basic_strin>
00404697   E9 24B10800      JMP GameServ.CGuildClass::AddGuild
0040469C   E9 AF620E00      JMP GameServ.CItem::IsExtItem
004046A1   E9 2A340700      JMP GameServ.WzUdp::CreateSocket
004046A6   E9 B5100800      JMP GameServ.std::basic_string<char,std:>
004046AB   E9 20C50800      JMP GameServ.CGuildClass::CloseMember
004046B0   E9 6B5B0500      JMP GameServ.gBattleGetTeamPosition
004046B5   E9 E6FF0900      JMP GameServ.ComboSkillData::Init
004046BA   E9 61D80900      JMP GameServ.CObjUseSkill::SkillWizardJa>
004046BF   E9 6C040500      JMP GameServ.CDevilSquare::CheckSync
004046C4   E9 97C20A00      JMP GameServ.std::_Construct
004046C9   E9 12AB0C00      JMP GameServ.ViewportAdd
004046CE   E9 4D2B0100      JMP GameServ.gEventMonsterItemDrop
004046D3   E9 68670700      JMP GameServ.PATH::GetDist
004046D8   E9 63171000      JMP GameServ.CBloodCastle::CheckUsersOnC>
004046DD   E9 BE0E0800      JMP GameServ.std::_Tree<std::basic_strin>
004046E2   E9 69670000      JMP GameServ.std::_Tree<int,std::pair<in>
004046E7   E9 A4FD1100      JMP GameServ.CWzMemScript::SetBuffer
004046EC   E9 4F0A0600      JMP GameServ.CEventManagement::Init
004046F1   E9 1ADC0400      JMP GameServ.CMultiAttackHackCheck::CMul>
004046F6   E9 452B1100      JMP GameServ.std::_Tree<int,std::pair<in>
004046FB   E9 D0790200      JMP GameServ.GCSkillKeyRecv
00404700   E9 AB9C0A00      JMP GameServ.std::_Tree<int,std::pair<in>
00404705   E9 56F50300      JMP GameServ.GCSendPing
0040470A   E9 E1561000      JMP GameServ.CBloodCastle::CalcSendRewar>
0040470F   E9 CC960700      JMP GameServ.LogPlusItemLevelChaosItem
00404714   E9 17590600      JMP GameServ.CItemBagEx::CItemBagEx
00404719   E9 A2B90500      JMP GameServ.std::vector<RINGMONSTER_EVE>
0040471E   E9 6DDF0100      JMP GameServ.DGOptionDataRecv
00404723   E9 A8040200      JMP GameServ.GS_DGAnsCastleTributeMoney
00404728   E9 33A80800      JMP GameServ.PartyClass::Delete
0040472D   E9 0E890900      JMP GameServ.CObjUseSkill::WizardMagicDe>
00404732   E9 495E0500      JMP GameServ.gCheckGoal
00404737   E9 E4450000      JMP GameServ.MonsterHerd::Stop
0040473C   E9 3FF81100      JMP GameServ.CMultiCheckSum::SetFilePath
00404741   E9 5A8C0900      JMP GameServ.CObjUseSkill::SkillAttack
00404746   E9 55480700      JMP GameServ.MapClass::MonsterItemDrop
0040474B   E9 E0751000      JMP GameServ.CChaosCastle::`scalar delet>
00404750   E9 8BF00900      JMP GameServ.classdef::~classdef
00404755   E9 A6880D00      JMP GameServ.gObjDelete10EventChip
0040475A   E9 A1C30500      JMP GameServ.std::fill
0040475F   E9 5CD71000      JMP GameServ.CChaosCastle::GetCurrentWin>
00404764   E9 57870A00      JMP GameServ.TUnion::GetGuildRelationShi>
00404769   E9 C2610B00      JMP GameServ.gObjIsGamePlaing
0040476E   E9 AD981100      JMP GameServ.std::map<int,_MAPSVR_DATA *>
00404773   E9 A8711000      JMP GameServ.CBloodCastle::CheckUserHave>
00404778   E9 739C0800      JMP GameServ.std::basic_string<char,std:>
0040477D   E9 CE350800      JMP GameServ.std::_Destroy
00404782   E9 89900800      JMP GameServ.CCallStackTrace::`scalar de>
00404787   E9 14770500      JMP GameServ.CEledoradoEvent::RegenGoldG>
0040478C   E9 FF890A00      JMP GameServ.TUnion::DelUnion
00404791   E9 BA050800      JMP GameServ.std::basic_string<char,std:>
00404796   E9 850A1000      JMP GameServ.CBloodCastle::SetSaintStatu>
0040479B   E9 40F80800      JMP GameServ.std::_Tree<int,std::pair<in>
004047A0   E9 4BAE0500      JMP GameServ.CRingMonsterHerd::GetX
004047A5   E9 16560200      JMP GameServ.GCServerMsgStringSendGuild
004047AA   E9 01B40100      JMP GameServ.JGCharDelRequest
004047AF   E9 6C8E0A00      JMP GameServ.std::map<int,TUnionInfo *,s>
004047B4   E9 C7400200      JMP GameServ.GCCheckMainExeKeySend
004047B9   E9 F2CE0D00      JMP GameServ.gProcessAutoRecuperation
004047BE   E9 1D080600      JMP GameServ.CEventManagement::`scalar d>
004047C3   E9 A8BA0400      JMP GameServ.char_ID::GetBuffer
004047C8   E9 535A0000      JMP GameServ.MonsterHerd::MonsterDieActi>
004047CD   E9 2E2D0700      JMP GameServ.WZQueue::Pop
004047D2   E9 E90C1000      JMP GameServ.CBloodCastle::LeaveUserBrid>
004047D7   E9 446E0B00      JMP GameServ.gObjGetAccountId
004047DC   E9 2FA00600      JMP GameServ.CSkillHitBox::CSkillHitBox
004047E1   E9 FA480B00      JMP GameServ.BILL_CLASS::GetCertify
004047E6   E9 E5830100      JMP GameServ.CDbSave::End
004047EB   E9 10AB0900      JMP GameServ.CObjUseSkill::SkillFrustrum
004047F0   E9 2BCF0400      JMP GameServ.FriendMemoListReq
004047F5   E9 06D90800      JMP GameServ.std::_Tree<std::basic_strin>
004047FA   E9 91530500      JMP GameServ.CBattleSoccer::SetGoalMove
004047FF   E9 7C2A1100      JMP GameServ.std::_Tree<int,std::pair<in>
00404804   E9 27AA0A00      JMP GameServ.std::_Tree<int,std::pair<in>
00404809   E9 C25C0800      JMP GameServ.CWhisperCash::`scalar delet>
0040480E   E9 9D510900      JMP GameServ.gObjDenorantSprite
00404813   E9 08840000      JMP GameServ.std::_Tree<int,std::pair<in>
00404818   E9 C3590600      JMP GameServ.CItemBagEx::Init
0040481D   E9 6EFB0800      JMP GameServ.std::_Tree<int,std::pair<in>
00404822   E9 A93B0300      JMP GameServ.CGPartyList
00404827   E9 C4430800      JMP GameServ.LogAddFuncVoid
0040482C   E9 AF9E0D00      JMP GameServ.gObjResetDuel
00404831   E9 DA080200      JMP GameServ.GJServerLogin
00404836   E9 35A51100      JMP GameServ.std::_Tree<int,std::pair<in>
0040483B   E9 F02F0500      JMP GameServ.CDevilSquareGround::GetObjC>
00404840   E9 5BE71100      JMP GameServ.NpcCastleGateLever
00404845   E9 B6571100      JMP GameServ.CGuardian::`scalar deleting>
0040484A   E9 31291100      JMP GameServ.std::pair<std::_Tree<int,st>
0040484F   E9 5C5B0700      JMP GameServ.MapClass::SetStandAttr
00404854   E9 67ED0400      JMP GameServ.CSendHackLog::SendSet
00404859   E9 D2710200      JMP GameServ.GCPkLevelSend
0040485E   E9 6DBD1000      JMP GameServ.CChaosCastle::SendWinMessag>
00404863   E9 98E50B00      JMP GameServ.gObjExpParty
00404868   E9 D3E50300      JMP GameServ.CGWeatherSend
0040486D   E9 AE360500      JMP GameServ.CDevilSquareGround::SendSco>
00404872   E9 C9180600      JMP GameServ.std::vector<EVENT_ID_TIME,s>
00404877   E9 E4690E00      JMP GameServ.CItem::BowWeaponDurabilityD>
0040487C   E9 0FCC0A00      JMP GameServ.gObjSkillUseProcTime500
00404881   E9 4AEF1000      JMP GameServ.CChaosCastle::CalDistance
00404886   E9 95C10E00      JMP GameServ.CGMMng::ManagerInit
0040488B   E9 90490500      JMP GameServ.std::_Insertion_sort
00404890   E9 6B991100      JMP GameServ.std::_Tree<int,std::pair<in>
00404895   E9 56680000      JMP GameServ.std::_Tree<int,std::pair<in>
0040489A   E9 B1810300      JMP GameServ.GCUserChaosBoxSend
0040489F   E9 DCB01000      JMP GameServ.CChaosCastle::DelMonsterLis>
004048A4   E9 07350C00      JMP GameServ.gObjWarehouseItemBoxSet
004048A9   E9 D2A50000      JMP GameServ.CQeustNpcTeleport::~CQeustN>
004048AE   E9 8D880300      JMP GameServ.PMoveProc
004048B3   E9 58F20F00      JMP GameServ.CBloodCastle::CheckChoasMix>
004048B8   E9 43410C00      JMP GameServ.gObjInventorySearchSerialNu>
004048BD   E9 1E751000      JMP GameServ._CHAOSCASTLE_USER::_CHAOSCA>
004048C2   E9 09E40F00      JMP GameServ.CBloodCastle::SetState_None
004048C7   E9 14C10100      JMP GameServ.DGGetWarehouseList
004048CC   E9 7F8F0900      JMP GameServ.CObjUseSkill::SkillHealing
004048D1   E9 4A111100      JMP GameServ.CChaosCastle::ReCalcUserCou>
004048D6   E9 C5A80400      JMP GameServ.DGRelationShipAnsBreakOff
004048DB   E9 70A60E00      JMP GameServ.GetSerialItem
004048E0   E9 5BF20500      JMP GameServ.AttackEvent55BagOpen
004048E5   E9 B6F30800      JMP GameServ.std::_Tree<std::basic_strin>
004048EA   E9 81531100      JMP GameServ.std::_Allocate
004048EF   E9 4C560600      JMP GameServ.CItemBag::GetOp2
004048F4   E9 F7970500      JMP GameServ.CRingAttackEvent::StopEvent
004048F9   E9 A2490000      JMP GameServ.MonsterHerd::OrderAttack
004048FE   E9 CD940400      JMP GameServ.GDGuildReqAssignStatus
00404903   E9 28511100      JMP GameServ.std::swap
00404908   E9 B3980500      JMP GameServ.CRingAttackEvent::Load
0040490D   E9 2ECA0A00      JMP GameServ.OBJECTSTRUCT::OBJECTSTRUCT
00404912   E9 39F11100      JMP GameServ.CLargeRand::~CLargeRand
00404917   E9 24770200      JMP GameServ.GCGoalSend
0040491C   E9 3F620400      JMP GameServ.GCAnsMoneyDrawOut
00404921   E9 CA450500      JMP GameServ.std::allocator<OBJECTSTRUCT>
00404926   E9 454D0E00      JMP GameServ.CItem::GetName
0040492B   E9 B0480D00      JMP GameServ.gObjMagicAdd
00404930   E9 EBB40F00      JMP GameServ.CGate::IsGate
00404935   E9 66BE0F00      JMP GameServ.CBloodCastle::Init
0040493A   E9 21A40600      JMP GameServ.CQuestInfo::Init
0040493F   E9 2C3F0D00      JMP GameServ.gObjMagicBPUse
00404944   E9 37FF0200      JMP GameServ.CGTradeCancelButtonRecv
00404949   E9 D2DB0100      JMP GameServ.ItemMovePathSave
0040494E   E9 0DCC0600      JMP GameServ.CQuestInfo::MonsterItemDrop
00404953   E9 28BE0A00      JMP GameServ.std::_Distance
00404958   E9 638D0500      JMP GameServ.CRingMonsterHerd::`scalar d>
0040495D   E9 CEC71100      JMP GameServ.std::_Construct
00404962   E9 29A41100      JMP GameServ.std::_Tree<int,std::pair<in>
00404967   E9 E4C90600      JMP GameServ.CQuestInfo::NpcTalk
0040496C   E9 7F310E00      JMP GameServ.CItem::GetLevel
00404971   E9 4ABF0A00      JMP GameServ.std::_Allocate
00404976   E9 F50B0800      JMP GameServ.std::_Tree<std::basic_strin>
0040497B   E9 20760700      JMP GameServ.CMapItem::CreateItem
00404980   E9 CBF50100      JMP GameServ.GS_GDReqRegGuildMark
00404985   E9 E6D60C00      JMP GameServ.gObjSecondProc
0040498A   E9 717C0E00      JMP GameServ.ItemGetNumberMake
0040498F   E9 6C2E0500      JMP GameServ.CDevilSquareGround::IncObjC>
00404994   E9 47E40300      JMP GameServ.GCItemDurSend2
00404999   E9 A2EB0400      JMP GameServ.CSendHackLog::`scalar delet>
0040499E   E9 5DAB1000      JMP GameServ.CChaosCastle::SetMonster
004049A3   E9 D8E30300      JMP GameServ.GCItemDurSend
004049A8   E9 C3AD0C00      JMP GameServ.gObjViewportAllDel
004049AD   E9 3E550600      JMP GameServ.CItemBag::GetOp1
004049B2   E9 794A0B00      JMP GameServ.gObjAllLogOut
004049B7   E9 745A0D00      JMP GameServ.gObjItemRandomOption3Up
004049BC   E9 0FC01100      JMP GameServ.std::_Tree<int,std::pair<in>
004049C1   E9 9AF40500      JMP GameServ.EGRecvEventChipInfo
004049C6   E9 D5250C00      JMP GameServ.gObjMonsterInventoryInsertI>
004049CB   E9 50280500      JMP GameServ.CDevilSquareGround::CDevilS>
004049D0   E9 9BC20A00      JMP GameServ.TUnionInfo::GetUnionMemberC>
004049D5   E9 06171100      JMP GameServ.std::map<int,_MONSTER_ITEM_>
004049DA   E9 815F0B00      JMP GameServ.gObjIsConnectedGP
004049DF   E9 DCEC0C00      JMP GameServ.gObjViewportListProtocolDes>
004049E4   E9 47600A00      JMP GameServ.CDarkSpirit::ModeAttakTarge>
004049E9   E9 F2BF0500      JMP GameServ.std::copy
004049EE   E9 AD4C0E00      JMP GameServ.CItem::PlusSpecialSetRing
004049F3   E9 58BE0A00      JMP GameServ.std::copy_backward
004049F8   E9 E3DA0600      JMP GameServ.CWzMultiCastSock::~CWzMulti>
004049FD   E9 FEA60300      JMP GameServ.GCMagicAttackNumberSend
00404A02   E9 A95D1100      JMP GameServ.CWeapon::`scalar deleting d>
00404A07   E9 E4B01000      JMP GameServ.CChaosCastle::SetItemsToMon>
00404A0C   E9 DFEC1100      JMP GameServ.CGameServerAuth::GetDataBuf>
00404A11   E9 8A9A0B00      JMP GameServ.gObjNextExpCal
00404A16   E9 C52F0800      JMP GameServ.std::_Tree<std::basic_strin>
00404A1B   E9 009E0400      JMP GameServ.DGRelationShipAnsJoin
00404A20   E9 6BE91100      JMP GameServ.CGameServerAuth::`scalar de>
00404A25   E9 86960A00      JMP GameServ.std::_Tree<int,std::pair<in>
00404A2A   E9 21800900      JMP GameServ.CObjUseSkill::MaGumSkillDef>
00404A2F   E9 6C281100      JMP GameServ.std::_Tree<int,std::pair<in>
00404A34   E9 F7FD0700      JMP GameServ.std::basic_string<char,std:>
00404A39   E9 D2630400      JMP GameServ.GCAnsCsSendCommand
00404A3E   E9 CD7D0000      JMP GameServ.std::_Tree<int,std::pair<in>
00404A43   E9 B8280F00      JMP GameServ.GMDataClientMsgProc
00404A48   E9 13FF0D00      JMP GameServ.CSetItemOption::IsSetItem
00404A4D   E9 0EA00600      JMP GameServ.CSkillHitBox::Load
00404A52   E9 C9F90F00      JMP GameServ.CBloodCastle::CheckCanEnter
00404A57   E9 D4FB0300      JMP GameServ.CGRequestQuestInfo
00404A5C   E9 BFAB0C00      JMP GameServ.Viewport2Del
00404A61   E9 DAD40F00      JMP GameServ.CBloodCastle::ProcState_Non>